(dp0
I0
S'Fame,'
p1
sI1
S'Appear'
p2
sI2
S'pardon'
p3
sI3
S'four'
p4
sI4
S'hath'
p5
sI5
S'thirst'
p6
sI6
S'appetite'
p7
sI7
S'party,'
p8
sI8
S'up.'
p9
sI9
S'whose'
p10
sI10
S'up,'
p11
sI11
S'Lead'
p12
sI12
S'common,'
p13
sI13
S'lord'
p14
sI14
S'wondrous'
p15
sI15
S'Well,'
p16
sI16
S'every'
p17
sI17
S'cowardly.'
p18
sI18
S'bringing'
p19
sI19
S"we'll"
p20
sI20
S'prize'
p21
sI21
S'sounds,'
p22
sI22
S'beholding,'
p23
sI23
S'mouths,'
p24
sI24
S'me,'
p25
sI25
S'equal.'
p26
sI26
S'likely'
p27
sI27
S'valiant'
p28
sI28
S'others,'
p29
sI29
S'Misguide'
p30
sI30
S'me;'
p31
sI31
S'even'
p32
sI32
S'established'
p33
sI33
S"ne'er"
p34
sI34
S'nature,'
p35
sI35
S'thunder'
p36
sI36
S'Whiles'
p37
sI37
S'report.'
p38
sI38
S'rest,'
p39
sI39
S'ever'
p40
sI40
S'told'
p41
sI41
S'fathers,'
p42
sI42
S'men'
p43
sI43
S'fronts'
p44
sI44
S'faults,'
p45
sI45
S'herd'
p46
sI46
S'met'
p47
sI47
S'leader,'
p48
sI48
S"Is't"
p49
sI49
S'finger,'
p50
sI50
S'war?'
p51
sI51
S'Rather'
p52
sI52
S'gentleman,'
p53
sI53
S'Three'
p54
sI54
S'exercise'
p55
sI55
S'brought'
p56
sI56
S'fame.'
p57
sI57
S'spoke'
p58
sI58
S'would'
p59
sI59
S'army'
p60
sI60
S'arms'
p61
sI61
S"press'd"
p62
sI62
S'call'
p63
sI63
S'strike'
p64
sI64
S'tell'
p65
sI65
S"'Though"
p66
sI66
S'wars'
p67
sI67
S'hurt'
p68
sI68
S'off!'
p69
sI69
S'breaths'
p70
sI70
S'excellent'
p71
sI71
S'midst'
p72
sI72
S'mirth.'
p73
sI73
S'off,'
p74
sI74
S'must'
p75
sI75
S'me'
p76
sI76
S'wore'
p77
sI77
S'work'
p78
sI78
S'ere'
p79
sI79
S'Corioli;'
p80
sI80
S'my'
p81
sI81
S'la,'
p82
sI82
S'constant.'
p83
sI83
S'give'
p84
sI84
S'malign'
p85
sI85
S'want'
p86
sI86
S'walls,'
p87
sI87
S'end'
p88
sI88
S'turn'
p89
sI89
S'provide'
p90
sI90
S'faults'
p91
sI91
S'youth.'
p92
sI92
S'answer'
p93
sI93
S'if'
p94
sI94
S"He'll"
p95
sI95
S'A'
p96
sI96
S'both,'
p97
sI97
S'after'
p98
sI98
S'Will'
p99
sI99
S'modest'
p100
sI100
S'away,'
p101
sI101
S'lay'
p102
sI102
S'sufferance'
p103
sI103
S'All'
p104
sI104
S'ho!'
p105
sI105
S'revolt'
p106
sI106
S'fault,'
p107
sI107
S'haste'
p108
sI108
S'sun.'
p109
sI109
S'Trust'
p110
sI110
S'wind'
p111
sI111
S'senators'
p112
sI112
S'humanely;'
p113
sI113
S'over'
p114
sI114
S'So,'
p115
sI115
S'digest'
p116
sI116
S'before'
p117
sI117
S'His'
p118
sI118
S'then.'
p119
sI119
S'fit'
p120
sI120
S"What's"
p121
sI121
S'Here'
p122
sI122
S'better'
p123
sI123
S'then?'
p124
sI124
S'man-child'
p125
sI125
S'Him'
p126
sI126
S'inventory'
p127
sI127
S'then'
p128
sI128
S'welcome.'
p129
sI129
S'drachm!'
p130
sI130
S'thee'
p131
sI131
S'break'
p132
sI132
S'they'
p133
sI133
S'one'
p134
sI134
S"to't"
p135
sI135
S'meat'
p136
sI136
S'outdares'
p137
sI137
S'each'
p138
sI138
S'side'
p139
sI139
S'unactive,'
p140
sI140
S'Confess'
p141
sI141
S'fortnight'
p142
sI142
S'borne'
p143
sI143
S'is;'
p144
sI144
S'fellows'
p145
sI145
S'content'
p146
sI146
S"'em!"
p147
sI147
S'is.'
p148
sI148
S'is,'
p149
sI149
S'got'
p150
sI150
S'forth'
p151
sI151
S'VALERIA'
p152
sI152
S'revenge'
p153
sI153
S'bestow'
p154
sI154
S'Rome!'
p155
sI155
S'marriages;'
p156
sI156
S'Rome,'
p157
sI157
S'days'
p158
sI158
S'Rome.'
p159
sI159
S"know't."
p160
sI160
S"know't,"
p161
sI161
S'speedy'
p162
sI162
S'fort,'
p163
sI163
S'fellow!'
p164
sI164
S'solemness'
p165
sI165
S'enraged'
p166
sI166
S'already'
p167
sI167
S'Fool-hardiness;'
p168
sI168
S'too.'
p169
sI169
S'womb,'
p170
sI170
S'wast'
p171
sI171
S'hearing'
p172
sI172
S'Sir,'
p173
sI173
S'senate;'
p174
sI174
S'power,'
p175
sI175
S'wants,'
p176
sI176
S'percussion'
p177
sI177
S'too'
p178
sI178
S'cupboarding'
p179
sI179
S'dogs'
p180
sI180
S'toe'
p181
sI181
S'daughter,'
p182
sI182
S'body,--'
p183
sI183
S'toe?'
p184
sI184
S'leg,'
p185
sI185
S'Consider'
p186
sI186
S'body.'
p187
sI187
S'night.'
p188
sI188
S'second'
p189
sI189
S'preparation'
p190
sI190
S'idle'
p191
sI191
S'Come,'
p192
sI192
S'well;'
p193
sI193
S'mind'
p194
sI194
S'yourselves?'
p195
sI195
S'talking'
p196
sI196
S'well.'
p197
sI197
S'Come;'
p198
sI198
S'seen'
p199
sI199
S'seem'
p200
sI200
S'yourselves.'
p201
sI201
S'dozen'
p202
sI202
S'poorest,'
p203
sI203
S'Then'
p204
sI204
S'wholesome'
p205
sI205
S'do,'
p206
sI206
S'thoroughly'
p207
sI207
S"Let's"
p208
sI208
S'They'
p209
sI209
S'Verily,'
p210
sI210
S'swims'
p211
sI211
S'What,'
p212
sI212
S'shall'
p213
sI213
S'object'
p214
sI214
S'school-master.'
p215
sI215
S'corn;'
p216
sI216
S'letter'
p217
sI217
S'fast,'
p218
sI218
S'grave'
p219
sI219
S'instruct,'
p220
sI220
S'dog'
p221
sI221
S'accounted'
p222
sI222
S'came'
p223
sI223
S'incorporate'
p224
sI224
S'fabric,'
p225
sI225
S'hunger'
p226
sI226
S'retire'
p227
sI227
S'plagues'
p228
sI228
S'mammocked'
p229
sI229
S'cannot,'
p230
sI230
S'hither.'
p231
sI231
S'Velutus,'
p232
sI232
S'rich'
p233
sI233
S'run,'
p234
sI234
S'do'
p235
sI235
S'foremost'
p236
sI236
S'report'
p237
sI237
S'chase,'
p238
sI238
S'about,'
p239
sI239
S'them?'
p240
sI240
S'pale--they'
p241
sI241
S'men,'
p242
sI242
S'fitly'
p243
sI243
S'them!'
p244
sI244
S"Ye're"
p245
sI245
S'surfeits'
p246
sI246
S'ears'
p247
sI247
S'elders.'
p248
sI248
S'fair'
p249
sI249
S"abhorr'd"
p250
sI250
S'depends'
p251
sI251
S'market-place;'
p252
sI252
S'vented'
p253
sI253
S'an-hungry;'
p254
sI254
S'best'
p255
sI255
S'pricking'
p256
sI256
S'said'
p257
sI257
S'face.'
p258
sI258
S'taunts.'
p259
sI259
S'BRUTUS'
p260
sI260
S"there's"
p261
sI261
S"Clapp'd"
p262
sI262
S'shields'
p263
sI263
S'hatching,'
p264
sI264
S'we'
p265
sI265
S'never'
p266
sI266
S'weal'
p267
sI267
S'bows,'
p268
sI268
S'staves'
p269
sI269
S"prevail'd"
p270
sI270
S'Soldier'
p271
sI271
S'proud;'
p272
sI272
S'here'
p273
sI273
S'news'
p274
sI274
S'disdain'
p275
sI275
S'country'
p276
sI276
S'against'
p277
sI277
S'Bring'
p278
sI278
S'freelier'
p279
sI279
S'Advance,'
p280
sI280
S'faces'
p281
sI281
S'speak'
p282
sI282
S'now,'
p283
sI283
S'strong'
p284
sI284
S'puts'
p285
sI285
S'Plaster'
p286
sI286
S'Prithee,'
p287
sI287
S'three'
p288
sI288
S'been'
p289
sI289
S'much'
p290
sI290
S'affrights'
p291
sI291
S'entered'
p292
sI292
S'threw'
p293
sI293
S'spit'
p294
sI294
S'nobility,'
p295
sI295
S'hour,'
p296
sI296
S'lift'
p297
sI297
S'east'
p298
sI298
S"t'other,"
p299
sI299
S'lesser'
p300
sI300
S'faith.'
p301
sI301
S'is'
p302
sI302
S'it'
p303
sI303
S'piercing'
p304
sI304
S'enters;'
p305
sI305
S'jest'
p306
sI306
S'in'
p307
sI307
S'Mend'
p308
sI308
S'placeth'
p309
sI309
S'Tell'
p310
sI310
S'meet,'
p311
sI311
S'stiff?'
p312
sI312
S'grown'
p313
sI313
S'confirmed'
p314
sI314
S'heart,'
p315
sI315
S'perform'
p316
sI316
S'things'
p317
sI317
S'make'
p318
sI318
S'forehead'
p319
sI319
S'Did'
p320
sI320
S'belly'
p321
sI321
S'big'
p322
sI322
S'several'
p323
sI323
S'wheel'
p324
sI324
S'hang'
p325
sI325
S'hand'
p326
sI326
S'made,'
p327
sI327
S"i'"
p328
sI328
S'scabs?'
p329
sI329
S'cormorant'
p330
sI330
S'thy'
p331
sI331
S'ope'
p332
sI332
S'greatest'
p333
sI333
S'mother'
p334
sI334
S'hearts'
p335
sI335
S'the'
p336
sI336
S'gods'
p337
sI337
S'yet'
p338
sI338
S'but,'
p339
sI339
S'had'
p340
sI340
S'complainings;'
p341
sI341
S'has'
p342
sI342
S'ye!'
p343
sI343
S'bands'
p344
sI344
S'tremble.'
p345
sI345
S'caps'
p346
sI346
S'speaks!'
p347
sI347
S'rebellion,'
p348
sI348
S'shadow'
p349
sI349
S'opinion,'
p350
sI350
S"ha'"
p351
sI351
S'prating'
p352
sI352
S'offices'
p353
sI353
S'Are'
p354
sI354
S'Further'
p355
sI355
S'Ithaca'
p356
sI356
S'country?'
p357
sI357
S'Now,'
p358
sI358
S'old'
p359
sI359
S'people'
p360
sI360
S'flatter'
p361
sI361
S'born'
p362
sI362
S'clubs'
p363
sI363
S'dear'
p364
sI364
S'shake,'
p365
sI365
S'enemies'
p366
sI366
S'for'
p367
sI367
S'plucked'
p368
sI368
S'foe'
p369
sI369
S'Let'
p370
sI370
S'fob'
p371
sI371
S'He'
p372
sI372
S'who'
p373
sI373
S'bold'
p374
sI374
S'corn'
p375
sI375
S"work's,"
p376
sI376
S'lady.'
p377
sI377
S'harvest-man'
p378
sI378
S'First'
p379
sI379
S'trophy'
p380
sI380
S'Nay.'
p381
sI381
S'Indeed,'
p382
sI382
S'citizens'
p383
sI383
S'seeking?'
p384
sI384
S'Still'
p385
sI385
S'pays'
p386
sI386
S'Make'
p387
sI387
S'bound'
p388
sI388
S'son'
p389
sI389
S'down'
p390
sI390
S'lies'
p391
sI391
S'bats'
p392
sI392
S'support'
p393
sI393
S'altitude'
p394
sI394
S'Hang'
p395
sI395
S'fight'
p396
sI396
S'fought'
p397
sI397
S'way'
p398
sI398
S'greatness'
p399
sI399
S'factions'
p400
sI400
S'was'
p401
sI401
S'war'
p402
sI402
S'so!'
p403
sI403
S'interims'
p404
sI404
S'some'
p405
sI405
S'so,'
p406
sI406
S'hear'
p407
sI407
S'true'
p408
sI408
S'deliberate,'
p409
sI409
S'voluptuously'
p410
sI410
S"'That"
p411
sI411
S'cobbled'
p412
sI412
S'proved'
p413
sI413
S'sticks'
p414
sI414
S'discovery.'
p415
sI415
S'left,'
p416
sI416
S'discretion,'
p417
sI417
S'physical'
p418
sI418
S'no'
p419
sI419
S'when'
p420
sI420
S"look'd"
p421
sI421
S'clubs?'
p422
sI422
S"'t"
p423
sI423
S"'s"
p424
sI424
S'transported'
p425
sI425
S'brief'
p426
sI426
S'fell'
p427
sI427
S'valiant.'
p428
sI428
S'cambric'
p429
sI429
S'ours.'
p430
sI430
S'died'
p431
sI431
S'promise.'
p432
sI432
S'Win'
p433
sI433
S'together'
p434
sI434
S'Second'
p435
sI435
S"flay'd?"
p436
sI436
S'teeth'
p437
sI437
S"'O"
p438
sI438
S'covetous.'
p439
sI439
S'parcels'
p440
sI440
S'chain'
p441
sI441
S'rob'
p442
sI442
S'relieve'
p443
sI443
S'souls'
p444
sI444
S'brow!'
p445
sI445
S'themes'
p446
sI446
S'mile'
p447
sI447
S'battle'
p448
sI448
S'Bold'
p449
sI449
S'leanness'
p450
sI450
S'wars.'
p451
sI451
S'charge'
p452
sI452
S'couldst'
p453
sI453
S'Bury'
p454
sI454
S'COMINIUS'
p455
sI455
S'superfluity,'
p456
sI456
S'superfluity.'
p457
sI457
S'choice'
p458
sI458
S'doit,'
p459
sI459
S'forth;'
p460
sI460
S'Where'
p461
sI461
S'minute'
p462
sI462
S"soul's"
p463
sI463
S'poor.'
p464
sI464
S'did'
p465
sI465
S'die'
p466
sI466
S"bran.'"
p467
sI467
S'leave'
p468
sI468
S'one--'
p469
sI469
S'quick'
p470
sI470
S'edicts'
p471
sI471
S'Patience'
p472
sI472
S'appear,'
p473
sI473
S'brave'
p474
sI474
S'says'
p475
sI475
S'be'
p476
sI476
S'Why,'
p477
sI477
S'appetite,'
p478
sI478
S'hair,'
p479
sI479
S'aims,'
p480
sI480
S'surplus,'
p481
sI481
S'curse'
p482
sI482
S'stands'
p483
sI483
S'excuse,'
p484
sI484
S'daily,'
p485
sI485
S'Hear'
p486
sI486
S'goes'
p487
sI487
S'oaks'
p488
sI488
S'See,'
p489
sI489
S'stitchery;'
p490
sI490
S'bale.'
p491
sI491
S'murrain'
p492
sI492
S'honour'
p493
sI493
S'say!'
p494
sI494
S'alone'
p495
sI495
S'along'
p496
sI496
S'say,'
p497
sI497
S'My'
p498
sI498
S'change'
p499
sI499
S'Resolved.'
p500
sI500
S'here;'
p501
sI501
S'here?'
p502
sI502
S"'twas,"
p503
sI503
S'oak.'
p504
sI504
S'geese,'
p505
sI505
S'curs,'
p506
sI506
S'of--Boils'
p507
sI507
S"burn'd"
p508
sI508
S'Irons'
p509
sI509
S'hither'
p510
sI510
S'love'
p511
sI511
S'myself.'
p512
sI512
S'Marcius'
p513
sI513
S'When'
p514
sI514
S'bloody'
p515
sI515
S'sincerely'
p516
sI516
S"seem'd,"
p517
sI517
S'retires'
p518
sI518
S'crammed'
p519
sI519
S'disdains'
p520
sI520
S'little--'
p521
sI521
S'prove'
p522
sI522
S'tender-bodied'
p523
sI523
S'visit'
p524
sI524
S'live'
p525
sI525
S'Nay,'
p526
sI526
S'These'
p527
sI527
S'virtue'
p528
sI528
S'stored.'
p529
sI529
S'blood!'
p530
sI530
S"on't;"
p531
sI531
S'blood,'
p532
sI532
S'given'
p533
sI533
S'troop?'
p534
sI534
S'wives,'
p535
sI535
S'can'
p536
sI536
S'making'
p537
sI537
S'worthiest'
p538
sI538
S'heart'
p539
sI539
S'Holding'
p540
sI540
S'Lartius'
p541
sI541
S'heard'
p542
sI542
S'Noble'
p543
sI543
S'soldier,'
p544
sI544
S'Who'
p545
sI545
S"'t."
p546
sI546
S'till'
p547
sI547
S'sworn'
p548
sI548
S'issued,'
p549
sI549
S'may'
p550
sI550
S'hear,'
p551
sI551
S'lord.'
p552
sI552
S'man'
p553
sI553
S'natural'
p554
sI554
S'speak.'
p555
sI555
S'enemies.'
p556
sI556
S'tale'
p557
sI557
S'so'
p558
sI558
S"on't!"
p559
sI559
S'no,'
p560
sI560
S'no.'
p561
sI561
S'mutiners,'
p562
sI562
S'indeed'
p563
sI563
S'counsellor'
p564
sI564
S'view;'
p565
sI565
S'course'
p566
sI566
S'comeliness'
p567
sI567
S'lovelier'
p568
sI568
S'hence,'
p569
sI569
S'apes'
p570
sI570
S'thank'
p571
sI571
S"he's"
p572
sI572
S'each,'
p573
sI573
S"opposers'"
p574
sI574
S'Worthy'
p575
sI575
S'heels,'
p576
sI576
S'petition'
p577
sI577
S'conveying'
p578
sI578
S'Beseech'
p579
sI579
S'within'
p580
sI580
S'Rome'
p581
sI581
S'She'
p582
sI582
S'half'
p583
sI583
S'not'
p584
sI584
S'now'
p585
sI585
S'nor'
p586
sI586
S'hereafter.'
p587
sI587
S'name'
p588
sI588
S'thankful'
p589
sI589
S'drop'
p590
sI590
S'veins'
p591
sI591
S'surfeit'
p592
sI592
S'gird'
p593
sI593
S'giddy'
p594
sI594
S'yes,'
p595
sI595
S'Hector,'
p596
sI596
S'increase'
p597
sI597
S'thus,'
p598
sI598
S'thus.'
p599
sI599
S'goes,'
p600
sI600
S'Valeria'
p601
sI601
S'curbs'
p602
sI602
S'fire,'
p603
sI603
S'Either'
p604
sI604
S'wiping,'
p605
sI605
S'Before-time'
p606
sI606
S'cloven'
p607
sI607
S'care'
p608
sI608
S'Being'
p609
sI609
S'honest'
p610
sI610
S'thing'
p611
sI611
S'thine'
p612
sI612
S'place'
p613
sI613
S'envied'
p614
sI614
S'they--'
p615
sI615
S'profess'
p616
sI616
S'think'
p617
sI617
S'first'
p618
sI618
S'Even'
p619
sI619
S'brain;'
p620
sI620
S'There'
p621
sI621
S'yourself'
p622
sI622
S'Till'
p623
sI623
S"mail'd"
p624
sI624
S'generosity,'
p625
sI625
S'Citizen'
p626
sI626
S'carry'
p627
sI627
S'open'
p628
sI628
S'eye,'
p629
sI629
S"'em"
p630
sI630
S'city'
p631
sI631
S'little'
p632
sI632
S'driven,'
p633
sI633
S'caught'
p634
sI634
S'Such'
p635
sI635
S'crack,'
p636
sI636
S'friend'
p637
sI637
S'on,'
p638
sI638
S'that'
p639
sI639
S'on;'
p640
sI640
S'Thither'
p641
sI641
S'than'
p642
sI642
S'Tutus'
p643
sI643
S"shorten'd"
p644
sI644
S"'Tis"
p645
sI645
S'folly'
p646
sI646
S'participate,'
p647
sI647
S'venture'
p648
sI648
S'were'
p649
sI649
S'and'
p650
sI650
S'abhorring.'
p651
sI651
S"He's"
p652
sI652
S'greyhound'
p653
sI653
S'page!'
p654
sI654
S'say'
p655
sI655
S'Amongst'
p656
sI656
S'Call'
p657
sI657
S'true-bred!'
p658
sI658
S'saw'
p659
sI659
S'any'
p660
sI660
S'late?'
p661
sI661
S'aside'
p662
sI662
S'take'
p663
sI663
S'Half'
p664
sI664
S'butterfly'
p665
sI665
S'afternoon.'
p666
sI666
S'jewel.'
p667
sI667
S'knee'
p668
sI668
S'envying'
p669
sI669
S'strength,'
p670
sI670
S'especially'
p671
sI671
S'proud'
p672
sI672
S'not;'
p673
sI673
S'slaves'
p674
sI674
S'not,'
p675
sI675
S'not.'
p676
sI676
S'alone,'
p677
sI677
S'Tullus'
p678
sI678
S'shop'
p679
sI679
S'show'
p680
sI680
S'army.'
p681
sI681
S'merit'
p682
sI682
S'honour;'
p683
sI683
S'threshold'
p684
sI684
S"Hector's"
p685
sI685
S'Breathe'
p686
sI686
S'mile!'
p687
sI687
S'We'
p688
sI688
S'gnaw'
p689
sI689
S'gulf'
p690
sI690
S'daily'
p691
sI691
S'enough'
p692
sI692
S'verdict?'
p693
sI693
S'only'
p694
sI694
S'entreaties'
p695
sI695
S'mile;'
p696
sI696
S'get'
p697
sI697
S"'tis"
p698
sI698
S'cannot'
p699
sI699
S'honours'
p700
sI700
S'beseech'
p701
sI701
S'yield'
p702
sI702
S'miles'
p703
sI703
S'friends,'
p704
sI704
S'friends.'
p705
sI705
S'friends!'
p706
sI706
S'where'
p707
sI707
S'Ladders,'
p708
sI708
S'Away,'
p709
sI709
S'seat'
p710
sI710
S'circumvention?'
p711
sI711
S'wonder'
p712
sI712
S'come,'
p713
sI713
S'come.'
p714
sI714
S'earnest,'
p715
sI715
S'That'
p716
sI716
S'basest,'
p717
sI717
S"father's"
p718
sI718
S'behind'
p719
sI719
S'between'
p720
sI720
S"answer'd--"
p721
sI721
S'man,'
p722
sI722
S'Than'
p723
sI723
S'man.'
p724
sI724
S"'head"
p725
sI725
S'Cushions,'
p726
sI726
S'pluck'
p727
sI727
S'spare'
p728
sI728
S'Were'
p729
sI729
S'whereof,'
p730
sI730
S'come'
p731
sI731
S'fought;'
p732
sI732
S'then,'
p733
sI733
S'Give'
p734
sI734
S'moon,'
p735
sI735
S'many'
p736
sI736
S'moon.'
p737
sI737
S'But,'
p738
sI738
S'pray'
p739
sI739
S'way,'
p740
sI740
S'senator'
p741
sI741
S'exile;'
p742
sI742
S'comes'
p743
sI743
S'Madam,'
p744
sI744
S'Romans,'
p745
sI745
S'dispatch'
p746
sI746
S'Note'
p747
sI747
S'disgrace'
p748
sI748
S'considering'
p749
sI749
S'save'
p750
sI750
S'Caius'
p751
sI751
S'hunt.'
p752
sI752
S"Cato's"
p753
sI753
S'west'
p754
sI754
S'But'
p755
sI755
S'mark'
p756
sI756
S'cared'
p757
sI757
S'truth,'
p758
sI758
S'sensibly'
p759
sI759
S'TITUS'
p760
sI760
S'swords,'
p761
sI761
S'swords!'
p762
sI762
S'Gentlewoman'
p763
sI763
S'former'
p764
sI764
S'those'
p765
sI765
S'impediment.'
p766
sI766
S'sound'
p767
sI767
S"insurrection's"
p768
sI768
S'these'
p769
sI769
S'fliers'
p770
sI770
S'successes'
p771
sI771
S'Besides,'
p772
sI772
S'art,'
p773
sI773
S'brow'
p774
sI774
S'person.'
p775
sI775
S'them'
p776
sI776
S'edge.'
p777
sI777
S'Better'
p778
sI778
S'commanded'
p779
sI779
S'granted'
p780
sI780
S'agents,'
p781
sI781
S'food'
p782
sI782
S'Touching'
p783
sI783
S'followers'
p784
sI784
S'I,'
p785
sI785
S'I.'
p786
sI786
S'afflicts'
p787
sI787
S'Say,'
p788
sI788
S"it's"
p789
sI789
S"I'"
p790
sI790
S'noble'
p791
sI791
S'I'
p792
sI792
S'assist'
p793
sI793
S'doublets'
p794
sI794
S"bleed'st;"
p795
sI795
S'nobly'
p796
sI796
S'Farewell.'
p797
sI797
S'charges'
p798
sI798
S'love.'
p799
sI799
S'Is'
p800
sI800
S'It'
p801
sI801
S'In'
p802
sI802
S'very'
p803
sI803
S'shut,'
p804
sI804
S'If'
p805
sI805
S'gates'
p806
sI806
S'followed.'
p807
sI807
S'am,'
p808
sI808
S'vent'
p809
sI809
S'being'
p810
sI810
S'MARCIUS'
p811
sI811
S'rest'
p812
sI812
S'shouts'
p813
sI813
S'violent'
p814
sI814
S'kill'
p815
sI815
S'repetition.'
p816
sI816
S'blow'
p817
sI817
S'sprang'
p818
sI818
S'warriors,'
p819
sI819
S'senseless'
p820
sI820
S'strange.'
p821
sI821
S'accusations;'
p822
sI822
S'offence'
p823
sI823
S'mow'
p824
sI824
S'action.'
p825
sI825
S'world'
p826
sI826
S'lady'
p827
sI827
S'grim'
p828
sI828
S'fortune'
p829
sI829
S'serves'
p830
sI830
S'benefit'
p831
sI831
S'hares;'
p832
sI832
S'Before'
p833
sI833
S'members;'
p834
sI834
S'drum,'
p835
sI835
S'Since'
p836
sI836
S'members,'
p837
sI837
S'intend'
p838
sI838
S"o'"
p839
sI839
S'noon'
p840
sI840
S'Soft!'
p841
sI841
S'think,'
p842
sI842
S'business'
p843
sI843
S'sensible'
p844
sI844
S'seconds'
p845
sI845
S'ruth,'
p846
sI846
S'drums'
p847
sI847
S'Summon'
p848
sI848
S'throw'
p849
sI849
S'on'
p850
sI850
S'stone'
p851
sI851
S"speak'st"
p852
sI852
S'contagion'
p853
sI853
S'countenance.'
p854
sI854
S'out?'
p855
sI855
S'mutually'
p856
sI856
S'whence'
p857
sI857
S'subdues'
p858
sI858
S'stand'
p859
sI859
S'act'
p860
sI860
S'revenge.'
p861
sI861
S'or'
p862
sI862
S'ladies'
p863
sI863
S'No'
p864
sI864
S'instruments'
p865
sI865
S'vantage.'
p866
sI866
S'mutinous'
p867
sI867
S'parties'
p868
sI868
S'your'
p869
sI869
S'strokes;'
p870
sI870
S'her'
p871
sI871
S'Though'
p872
sI872
S'there'
p873
sI873
S'you.'
p874
sI874
S'you,'
p875
sI875
S'another?'
p876
sI876
S'VIRGILIA'
p877
sI877
S'Whither'
p878
sI878
S'you!'
p879
sI879
S'you?'
p880
sI880
S'you;'
p881
sI881
S'Beneath'
p882
sI882
S'with'
p883
sI883
S'yonder,'
p884
sI884
S'famously,'
p885
sI885
S'he?'
p886
sI886
S'highest!'
p887
sI887
S'Whilst'
p888
sI888
S'he,'
p889
sI889
S'he.'
p890
sI890
S'affection'
p891
sI891
S'gone'
p892
sI892
S"general's"
p893
sI893
S'am'
p894
sI894
S'deep'
p895
sI895
S'general'
p896
sI896
S'How'
p897
sI897
S'Lets'
p898
sI898
S'at'
p899
sI899
S'hearts,'
p900
sI900
S'Strike'
p901
sI901
S'horse'
p902
sI902
S'fill'
p903
sI903
S'swords'
p904
sI904
S'trumpeter.'
p905
sI905
S'thither'
p906
sI906
S'emulation.'
p907
sI907
S'field'
p908
sI908
S'contemning.'
p909
sI909
S'you'
p910
sI910
S'Lady'
p911
sI911
S'thousand'
p912
sI912
S'evil.'
p913
sI913
S'poor'
p914
sI914
S'briefly'
p915
sI915
S'walk,'
p916
sI916
S'time'
p917
sI917
S'fool!'
p918
sI918
S"go'st"
p919
sI919
S'dissentious'
p920
sI920
S'sword,'
p921
sI921
S'patricians,'
p922
sI922
S'minister'
p923
sI923
S'all'
p924
sI924
S'vile'
p925
sI925
S'lack'
p926
sI926
S"to't?"
p927
sI927
S'Take'
p928
sI928
S'follow'
p929
sI929
S'son;'
p930
sI930
S'children'
p931
sI931
S'son?'
p932
sI932
S"restrain'd,"
p933
sI933
S'to'
p934
sI934
S'garners.'
p935
sI935
S"is't"
p936
sI936
S'smile'
p937
sI937
S'Jupiter,'
p938
sI938
S'worse'
p939
sI939
S'hailstone'
p940
sI940
S'abundance;'
p941
sI941
S'foxes,'
p942
sI942
S'famish,'
p943
sI943
S'worst'
p944
sI944
S'rascal,'
p945
sI945
S'fall'
p946
sI946
S'famish?'
p947
sI947
S'wholesome,'
p948
sI948
S'heaven'
p949
sI949
S"'They"
p950
sI950
S'undone'
p951
sI951
S'along.'
p952
sI952
S'small'
p953
sI953
S'answer?'
p954
sI954
S'rats'
p955
sI955
S'ten'
p956
sI956
S'shields.'
p957
sI957
S'Should'
p958
sI958
S'toe!'
p959
sI959
S'Only'
p960
sI960
S'answer.'
p961
sI961
S'what'
p962
sI962
S'usury,'
p963
sI963
S'him;'
p964
sI964
S'Condemning'
p965
sI965
S'musty'
p966
sI966
S'him.'
p967
sI967
S'him,'
p968
sI968
S'dearth,'
p969
sI969
S'public'
p970
sI970
S'him!'
p971
sI971
S"o'er,"
p972
sI972
S'full'
p973
sI973
S'hours'
p974
sI974
S'rakes'
p975
sI975
S'entire,'
p976
sI976
S'encountering,'
p977
sI977
S'soldier'
p978
sI978
S'pick'
p979
sI979
S'Be-mock'
p980
sI980
S'cowardly'
p981
sI981
S'Too'
p982
sI982
S"They'll"
p983
sI983
S'Hail,'
p984
sI984
S'know,'
p985
sI985
S'You,'
p986
sI986
S'Cominius,'
p987
sI987
S'proceed'
p988
sI988
S'Cominius.'
p989
sI989
S'Corn'
p990
sI990
S"Cominius'"
p991
sI991
S'Romans'
p992
sI992
S'Ransoming'
p993
sI993
S'widens'
p994
sI994
S'misery,'
p995
sI995
S'bedward!'
p996
sI996
S'rubbing'
p997
sI997
S'more'
p998
sI998
S'knows'
p999
sI999
S'company'
p1000
sI1000
S'broke'
p1001
sI1001
S'known'
p1002
sI1002
S'glad'
p1003
sI1003
S'none'
p1004
sI1004
S'hour'
p1005
sI1005
S'Roman,'
p1006
sI1006
S'remain'
p1007
sI1007
S'Nor'
p1008
sI1008
S'Aufidius'
p1009
sI1009
S'Your'
p1010
sI1010
S'meaner'
p1011
sI1011
S'forth.'
p1012
sI1012
S'numbers'
p1013
sI1013
S'struck,'
p1014
sI1014
S'needs'
p1015
sI1015
S'bread,'
p1016
sI1016
S'moved,'
p1017
sI1017
S'rather'
p1018
sI1018
S'eat,'
p1019
sI1019
S'Fall'
p1020
sI1020
S'charms'
p1021
sI1021
S'goddess,'
p1022
sI1022
S'state,'
p1023
sI1023
S'blood'
p1024
sI1024
S'surer,'
p1025
sI1025
S'a'
p1026
sI1026
S'Sweet'
p1027
sI1027
S'coal'
p1028
sI1028
S"attain'd"
p1029
sI1029
S"unroof'd"
p1030
sI1030
S"it.'"
p1031
sI1031
S"that's"
p1032
sI1032
S'replied'
p1033
sI1033
S'would.'
p1034
sI1034
S'What'
p1035
sI1035
S'help'
p1036
sI1036
S'senate,'
p1037
sI1037
S'wall,'
p1038
sI1038
S'held'
p1039
sI1039
S'through'
p1040
sI1040
S'army;'
p1041
sI1041
S'smiling'
p1042
sI1042
S'suffer'
p1043
sI1043
S'already,'
p1044
sI1044
S'brows'
p1045
sI1045
S'already.'
p1046
sI1046
S'absence'
p1047
sI1047
S'parts'
p1048
sI1048
S'Corioli'
p1049
sI1049
S'rabble'
p1050
sI1050
S'might'
p1051
sI1051
S'it.'
p1052
sI1052
S'it,'
p1053
sI1053
S'good'
p1054
sI1054
S'return'
p1055
sI1055
S'little.'
p1056
sI1056
S'great;'
p1057
sI1057
S'masters,'
p1058
sI1058
S'ye'
p1059
sI1059
S'it!'
p1060
sI1060
S"'Fore"
p1061
sI1061
S'Ere'
p1062
sI1062
S'it;'
p1063
sI1063
S'always'
p1064
sI1064
S'all,'
p1065
sI1065
S'bless'
p1066
sI1066
S'tear'
p1067
sI1067
S'labour,'
p1068
sI1068
S'fires'
p1069
sI1069
S'found'
p1070
sI1070
S'rise,'
p1071
sI1071
S'another'
p1072
sI1072
S'Slain,'
p1073
sI1073
S'deeds.'
p1074
sI1074
S'beyond'
p1075
sI1075
S'More'
p1076
sI1076
S'since'
p1077
sI1077
S'trusts'
p1078
sI1078
S'issue'
p1079
sI1079
S'trenches?'
p1080
sI1080
S'risen'
p1081
sI1081
S'guess'
p1082
sI1082
S'base'
p1083
sI1083
S'members'
p1084
sI1084
S'put'
p1085
sI1085
S'Opinion'
p1086
sI1086
S'bring'
p1087
sI1087
S'terrible'
p1088
sI1088
S'husewife'
p1089
sI1089
S'feed'
p1090
sI1090
S'stir,'
p1091
sI1091
S'feel'
p1092
sI1092
S'stands,'
p1093
sI1093
S"belly's"
p1094
sI1094
S'done'
p1095
sI1095
S'wager'
p1096
sI1096
S'SICINIUS'
p1097
sI1097
S'remember,'
p1098
sI1098
S'gates,'
p1099
sI1099
S'thoughts,'
p1100
sI1100
S'threatening'
p1101
sI1101
S'aim,'
p1102
sI1102
S'hundred'
p1103
sI1103
S'malicious,'
p1104
sI1104
S'Speak,'
p1105
sI1105
S'relieved'
p1106
sI1106
S'citizens,'
p1107
sI1107
S'citizens.'
p1108
sI1108
S'part'
p1109
sI1109
S'believe'
p1110
sI1110
S'kind'
p1111
sI1111
S'Conjectural'
p1112
sI1112
S'instruction.'
p1113
sI1113
S'youth'
p1114
sI1114
S'certainties.'
p1115
sI1115
S'lowest,'
p1116
sI1116
S'stale'
p1117
sI1117
S'head,'
p1118
sI1118
S'alike'
p1119
sI1119
S'first,'
p1120
sI1120
S'sell'
p1121
sI1121
S'lie'
p1122
sI1122
S'fashion,'
p1123
sI1123
S'officers'
p1124
sI1124
S'wish,'
p1125
sI1125
S'labour'
p1126
sI1126
S'lip'
p1127
sI1127
S'other;'
p1128
sI1128
S'With'
p1129
sI1129
S'Go,'
p1130
sI1130
S'play'
p1131
sI1131
S'quoth'
p1132
sI1132
S'Have'
p1133
sI1133
S'Thy'
p1134
sI1134
S'cowards!'
p1135
sI1135
S'cares,'
p1136
sI1136
S'took'
p1137
sI1137
S'most'
p1138
sI1138
S'fight.'
p1139
sI1139
S'services'
p1140
sI1140
S'The'
p1141
sI1141
S'appear'
p1142
sI1142
S'LARTIUS'
p1143
sI1143
S'charitable'
p1144
sI1144
S'dissolved'
p1145
sI1145
S'doors!'
p1146
sI1146
S'barren'
p1147
sI1147
S'charged'
p1148
sI1148
S'nobility'
p1149
sI1149
S'Volsce,'
p1150
sI1150
S'fins'
p1151
sI1151
S"Tullus'"
p1152
sI1152
S'Had'
p1153
sI1153
S'feel,'
p1154
sI1154
S"task'd"
p1155
sI1155
S'fine'
p1156
sI1156
S'find'
p1157
sI1157
S'gilded'
p1158
sI1158
S"sigh'd"
p1159
sI1159
S'Then,'
p1160
sI1160
S'justice'
p1161
sI1161
S'sacrifice.'
p1162
sI1162
S'pretty'
p1163
sI1163
S'commission;'
p1164
sI1164
S'his'
p1165
sI1165
S'heaven,'
p1166
sI1166
S'express'
p1167
sI1167
S'hie'
p1168
sI1168
S'Volsces'
p1169
sI1169
S'him'
p1170
sI1170
S'body,'
p1171
sI1171
S'enemy'
p1172
sI1172
S'cry'
p1173
sI1173
S'remove'
p1174
sI1174
S'graced,'
p1175
sI1175
S'Held'
p1176
sI1176
S'common'
p1177
sI1177
S'That,'
p1178
sI1178
S'troth,'
p1179
sI1179
S'set'
p1180
sI1180
S'art'
p1181
sI1181
S"O,'tis"
p1182
sI1182
S'city,'
p1183
sI1183
S'city;'
p1184
sI1184
S'lion'
p1185
sI1185
S'are'
p1186
sI1186
S'arm'
p1187
sI1187
S'knees'
p1188
sI1188
S'mine'
p1189
sI1189
S'please'
p1190
sI1190
S'See'
p1191
sI1191
S'won'
p1192
sI1192
S'Ye?'
p1193
sI1193
S'hangmen'
p1194
sI1194
S'Against'
p1195
sI1195
S"Rebell'd"
p1196
sI1196
S'Piercing'
p1197
sI1197
S'both'
p1198
sI1198
S"answer'd"
p1199
sI1199
S'last'
p1200
sI1200
S'thou'
p1201
sI1201
S'sons,'
p1202
sI1202
S'Hecuba,'
p1203
sI1203
S'spirit,'
p1204
sI1204
S'whole'
p1205
sI1205
S"'s,"
p1206
sI1206
S'Junius'
p1207
sI1207
S'price.'
p1208
sI1208
S'point'
p1209
sI1209
S'sweet'
p1210
sI1210
S'arguing.'
p1211
sI1211
S'Virgilia,'
p1212
sI1212
S'hews'
p1213
sI1213
S'wisdoms,'
p1214
sI1214
S'helms'
p1215
sI1215
S'stamp'
p1216
sI1216
S'grain;'
p1217
sI1217
S'whom'
p1218
sI1218
S'thither.'
p1219
sI1219
S'Care'
p1220
sI1220
S'partly'
p1221
sI1221
S'success,'
p1222
sI1222
S'fire'
p1223
sI1223
S'infect'
p1224
sI1224
S"what's"
p1225
sI1225
S'else'
p1226
sI1226
S'finds'
p1227
sI1227
S'towns'
p1228
sI1228
S'Cominius'
p1229
sI1229
S'utmost'
p1230
sI1230
S'look'
p1231
sI1231
S'well,'
p1232
sI1232
S'For,'
p1233
sI1233
S'crutch'
p1234
sI1234
S'who,'
p1235
sI1235
S'while'
p1236
sI1236
S'Yonder'
p1237
sI1237
S'further,'
p1238
sI1238
S'pack'
p1239
sI1239
S'where,'
p1240
sI1240
S'pound'
p1241
sI1241
S"Ulysses'"
p1242
sI1242
S'husband.'
p1243
sI1243
S'husband,'
p1244
sI1244
S'confound'
p1245
sI1245
S'Shouting'
p1246
sI1246
S'hire.'
p1247
sI1247
S'ready'
p1248
sI1248
S'AUFIDIUS'
p1249
sI1249
S'shunning'
p1250
sI1250
S'away.'
p1251
sI1251
S'Menenius'
p1252
sI1252
S'afoot.'
p1253
sI1253
S'seek'
p1254
sI1254
S'muniments'
p1255
sI1255
S'away!'
p1256
sI1256
S'wherein'
p1257
sI1257
S'prayers;'
p1258
sI1258
S'Sicinius'
p1259
sI1259
S'MENENIUS'
p1260
sI1260
S'itch'
p1261
sI1261
S'forced'
p1262
sI1262
S'censure'
p1263
sI1263
S"army's"
p1264
sI1264
S'Worshipful'
p1265
sI1265
S'people.'
p1266
sI1266
S'yet.'
p1267
sI1267
S'yet,'
p1268
sI1268
S'awhile,'
p1269
sI1269
S'Marcius,'
p1270
sI1270
S'Marcius.'
p1271
sI1271
S'O,'
p1272
sI1272
S"O'"
p1273
sI1273
S"Marcius'"
p1274
sI1274
S'Marcius!'
p1275
sI1275
S'matter,'
p1276
sI1276
S'Marcius?'
p1277
sI1277
S'Marcius;'
p1278
sI1278
S'vigilant'
p1279
sI1279
S'complain,'
p1280
sI1280
S'matter?'
p1281
sI1281
S'unto'
p1282
sI1282
S'hated'
p1283
sI1283
S'store-house'
p1284
sI1284
S'follow.'
p1285
sI1285
S'thee,'
p1286
sI1286
S'march'
p1287
sI1287
S'What!'
p1288
sI1288
S'Thou'
p1289
sI1289
S'Of'
p1290
sI1290
S'bid'
p1291
sI1291
S'Mars,'
p1292
sI1292
S'suffering'
p1293
sI1293
S'thee;'
p1294
sI1294
S'Or'
p1295
sI1295
S'hate,'
p1296
sI1296
S'manifest'
p1297
sI1297
S'shapes'
p1298
sI1298
S'particularise'
p1299
sI1299
S"kings'"
p1300
sI1300
S'hate;'
p1301
sI1301
S'foolish'
p1302
sI1302
S'small--of'
p1303
sI1303
S"stand'st"
p1304
sI1304
S'Hark!'
p1305
sI1305
S'abundantly'
p1306
sI1306
S'back'
p1307
sI1307
S'virtue.'
p1308
sI1308
S'strongest'
p1309
sI1309
S'Messenger'
p1310
sI1310
S'pale'
p1311
sI1311
S'Look,'
p1312
sI1312
S'though'
p1313
sI1313
S'feebling'
p1314
sI1314
S'accusers,'
p1315
sI1315
S'good.'
p1316
sI1316
S'And,'
p1317
sI1317
S'run'
p1318
sI1318
S"They've"
p1319
sI1319
S'O'
p1320
sI1320
S'nerves'
p1321
sI1321
S'moods.'
p1322
sI1322
S'by'
p1323
sI1323
S'discontented'
p1324
sI1324
S'deserves'
p1325
sI1325
S'fragments!'
p1326
sI1326
S'gilt'
p1327
sI1327
S"'Come"
p1328
sI1328
S'seeing'
p1329
sI1329
S'picture-like'
p1330
sI1330
S'rushes.'
p1331
sI1331
S'boy.'
p1332
sI1332
S'Their'
p1333
sI1333
S'rushes;'
p1334
sI1334
S'mantled'
p1335
sI1335
S'Methinks'
p1336
sI1336
S'long'
p1337
sI1337
S"Where's"
p1338
sI1338
S'rogues,'
p1339
sI1339
S'Come'
p1340
sI1340
S'himself'
p1341
sI1341
S'an'
p1342
sI1342
S'assembly?'
p1343
sI1343
S'link'
p1344
sI1344
S'maliciously.'
p1345
sI1345
S"I'll"
p1346
sI1346
S"I'ld"
p1347
sI1347
S'up'
p1348
sI1348
S'us'
p1349
sI1349
S'slander'
p1350
sI1350
S'thus--'
p1351
sI1351
S'Lartius,'
p1352
sI1352
S'door.'
p1353
sI1353
S'geese'
p1354
sI1354
S'moths.'
p1355
sI1355
S'To'
p1356
sI1356
S'Lartius?'
p1357
sI1357
S'Above'
p1358
sI1358
S'Grecian'
p1359
sI1359
S'gusts'
p1360
sI1360
S'smile,'
p1361
sI1361
S'themselves;'
p1362
sI1362
S"not--'Sdeath!"
p1363
sI1363
S'unreasonably'
p1364
sI1364
S'May'
p1365
sI1365
S'hark,'
p1366
sI1366
S'peace'
p1367
sI1367
S'fears'
p1368
sI1368
S'backs'
p1369
sI1369
S'wrath.'
p1370
sI1370
S'hell!'
p1371
sI1371
S'themselves.'
p1372
sI1372
S'becomes'
p1373
sI1373
S'confine'
p1374
sI1374
S'lend'
p1375
sI1375
S'neck.'
p1376
sI1376
S'breasts'
p1377
sI1377
S'prepared'
p1378
sI1378
S'silver.'
p1379
sI1379
S'sudden,'
p1380
sI1380
S'madam,'
p1381
sI1381
S'vice'
p1382
sI1382
S'rates;'
p1383
sI1383
S'As'
p1384
sI1384
S'fear,'
p1385
sI1385
S'At'
p1386
sI1386
S'far'
p1387
sI1387
S'Heavens'
p1388
sI1388
S'feverous'
p1389
sI1389
S'fear!'
p1390
sI1390
S'once'
p1391
sI1391
S'True,'
p1392
sI1392
S'pretences'
p1393
sI1393
S'agued'
p1394
sI1394
S'Capitol!'
p1395
sI1395
S'renown'
p1396
sI1396
S'Capitol;'
p1397
sI1397
S'go'
p1398
sI1398
S'send'
p1399
sI1399
S'helps'
p1400
sI1400
S'Not'
p1401
sI1401
S'Now'
p1402
sI1402
S'sent'
p1403
sI1403
S'issue.'
p1404
sI1404
S'Titus'
p1405
sI1405
S'more,'
p1406
sI1406
S'yourselves'
p1407
sI1407
S'more.'
p1408
sI1408
S'No,'
p1409
sI1409
S'busied'
p1410
sI1410
S'Hark'
p1411
sI1411
S'stiff'
p1412
sI1412
S'help.'
p1413
sI1413
S'insolence'
p1414
sI1414
S'Unto'
p1415
sI1415
S'safe!'
p1416
sI1416
S'rivers'
p1417
sI1417
S'decrees'
p1418
sI1418
S'thence;'
p1419
sI1419
S'that,'
p1420
sI1420
S'nothing'
p1421
sI1421
S'power'
p1422
sI1422
S'pitying,'
p1423
sI1423
S'Fortune,'
p1424
sI1424
S"man's"
p1425
sI1425
S'Agrippa;'
p1426
sI1426
S'that;'
p1427
sI1427
S'honours.'
p1428
sI1428
S'honours,'
p1429
sI1429
S'body'
p1430
sI1430
S'desires'
p1431
sI1431
S'Tickled'
p1432
sI1432
S'let'
p1433
sI1433
S'sink'
p1434
sI1434
S'Our'
p1435
sI1435
S'great'
p1436
sI1436
S'receive'
p1437
sI1437
S'Or,'
p1438
sI1438
S'opinion'
p1439
sI1439
S'house-keepers.'
p1440
sI1440
S'makes'
p1441
sI1441
S'Prosperity'
p1442
sI1442
S'danger'
p1443
sI1443
S'win'
p1444
sI1444
S'counsels'
p1445
sI1445
S'persuaded;'
p1446
sI1446
S'apply'
p1447
sI1447
S'use'
p1448
sI1448
S'from'
p1449
sI1449
S'Attend'
p1450
sI1450
S'prithee,'
p1451
sI1451
S'Alack,'
p1452
sI1452
S'eleven'
p1453
sI1453
S'doubt'
p1454
sI1454
S'sort'
p1455
sI1455
S"appear'd"
p1456
sI1456
S'statutes'
p1457
sI1457
S'sir.'
p1458
sI1458
S'Wednesday'
p1459
sI1459
S'sir,'
p1460
sI1460
S'bodily'
p1461
sI1461
S'commonalty.'
p1462
sI1462
S'store-houses'
p1463
sI1463
S'sir;'
p1464
sI1464
S'demerits'
p1465
sI1465
S'red,'
p1466
sI1466
S'account'
p1467
sI1467
S'us!'
p1468
sI1468
S'this'
p1469
sI1469
S'us.'
p1470
sI1470
S'us,'
p1471
sI1471
S'Aufidius;'
p1472
sI1472
S'ice,'
p1473
sI1473
S'Aufidius!'
p1474
sI1474
S'praise'
p1475
sI1475
S'of'
p1476
sI1476
S'Aufidius,'
p1477
sI1477
S'us;'
p1478
sI1478
S'fetch'
p1479
sI1479
S'proof'
p1480
sI1480
S'hitherward.'
p1481
sI1481
S'bent'
p1482
sI1482
S'shepherd'
p1483
sI1483
S'high'
p1484
sI1484
S'half.'
p1485
sI1485
S'slip'
p1486
sI1486
S"warm'd"
p1487
sI1487
S'trumpet'
p1488
sI1488
S'doubtless.'
p1489
sI1489
S'sir'
p1490
sI1490
S'sit'
p1491
sI1491
S'Ye'
p1492
sI1492
S"friends,'--this"
p1493
sI1493
S'sin'
p1494
sI1494
S'fare'
p1495
sI1495
S'attend'
p1496
sI1496
S'carbuncle'
p1497
sI1497
S'Roman'
p1498
sI1498
S'garland.'
p1499
sI1499
S'folly.'
p1500
sI1500
S'gone,'
p1501
sI1501
S'light'
p1502
sI1502
S'One'
p1503
sI1503
S'chief'
p1504
sI1504
S'both?'
p1505
sI1505
S'pray,'
p1506
sI1506
S'looks'
p1507
sI1507
S'shreds'
p1508
sI1508
S'hand?'
p1509
sI1509
S'chosen'
p1510
sI1510
S"Who's"
p1511
sI1511
S'brook'
p1512
sI1512
S'Thanks.'
p1513
sI1513
S'restrain'
p1514
sI1514
S'First,'
p1515
sI1515
S'Ay,'
p1516
sI1516
S'greater'
p1517
sI1517
S'flour'
p1518
sI1518
S'sirs,'
p1519
sI1519
S'affections'
p1520
sI1520
S'day'
p1521
sI1521
S'Agreed.'
p1522
sI1522
S'prevailing'
p1523
sI1523
S'suitors'
p1524
sI1524
S'Titus,'
p1525
sI1525
S'Which'
p1526
sI1526
S'receipt;'
p1527
sI1527
S'our'
p1528
sI1528
S'out'
p1529
sI1529
S'lungs,'
p1530
sI1530
S"'"
p1531
sI1531
S'lance.'
p1532
sI1532
S'Very'
p1533
sI1533
S'defend'
p1534
sI1534
S"veil'd"
p1535
sI1535
S"rumour'd,"
p1536
sI1536
S'favours'
p1537
sI1537
S"one's"
p1538
sI1538
S'shut'
p1539
sI1539
S'people,--'
p1540
sI1540
S'This'
p1541
sI1541
S'undo'
p1542
sI1542
S'Senator'
p1543
sI1543
S'met.'
p1544
sI1544
S'them,'
p1545
sI1545
S'could'
p1546
sI1546
S'purpose,'
p1547
sI1547
S'yarn'
p1548
sI1548
S'keep'
p1549
sI1549
S'walls?'
p1550
sI1550
S'south'
p1551
sI1551
S"swear,'tis"
p1552
sI1552
S'makes!'
p1553
sI1553
S'list,'
p1554
sI1554
S'such'
p1555
sI1555
S'city.'
p1556
sI1556
S'have,'
p1557
sI1557
S'Fare'
p1558
sI1558
S'For'
p1559
sI1559
S'unknown'
p1560
sI1560
S'examine'
p1561
sI1561
S'vulgar'
p1562
sI1562
S'embracements'
p1563
sI1563
S'their'
p1564
sI1564
S'enough!'
p1565
sI1565
S'quarry'
p1566
sI1566
S'takes,'
p1567
sI1567
S'child.'
p1568
sI1568
S'speak,'
p1569
sI1569
S'Brutus,'
p1570
sI1570
S'loved'
p1571
sI1571
S'proud.'
p1572
sI1572
S'aught'
p1573
sI1573
S'ladyship.'
p1574
sI1574
S'upon;'
p1575
sI1575
S'steed'
p1576
sI1576
S'see'
p1577
sI1577
S'bed'
p1578
sI1578
S'ladyship;'
p1579
sI1579
S'me,--'
p1580
sI1580
S'calamity'
p1581
sI1581
S'pot,'
p1582
sI1582
S"body's"
p1583
sI1583
S'bear,'
p1584
sI1584
S'countrymen,'
p1585
sI1585
S'clip'
p1586
sI1586
S'comfortable'
p1587
sI1587
S'gods!'
p1588
sI1588
S'have'
p1589
sI1589
S'need'
p1590
sI1590
S'comes,'
p1591
sI1591
S'competency'
p1592
sI1592
S"'larum,"
p1593
sI1593
S'which'
p1594
sI1594
S'patience;'
p1595
sI1595
S'gods.'
p1596
sI1596
S'sewing'
p1597
sI1597
S'business.'
p1598
sI1598
S'business,'
p1599
sI1599
S'gods,'
p1600
sI1600
S'cracking'
p1601
sI1601
S'why'
p1602
sI1602
S"husband's"
p1603
sI1603
S'awe,'
p1604
sI1604
S'battle;'
p1605
sI1605
S'sing;'
p1606
sI1606
S'Some'
p1607
sI1607
S'disease'
p1608
sI1608
S'looked'
p1609
sI1609
S"you'll"
p1610
sI1610
S'lions,'
p1611
sI1611
S'patricians'
p1612
sI1612
S'word,'
p1613
sI1613
S'word.'
p1614
sI1614
S"business!'"
p1615
sI1615
S'Following'
p1616
sI1616
S'Under'
p1617
sI1617
S'fear'
p1618
sI1618
S'pleased'
p1619
sI1619
S'true,'
p1620
sI1620
S'tire'
p1621
sI1621
S'earned'
p1622
sI1622
S'rash'
p1623
sI1623
S'should'
p1624
sI1624
S'true;'
p1625
sI1625
S'he'
p1626
sI1626
S'thousands'
p1627
sI1627
S'inferior'
p1628
sI1628
S'spun'
p1629
sI1629
S'years.'
p1630
sI1630
S'cranks'
p1631
sI1631
S'means'
p1632
sI1632
S'Whether'
p1633
sI1633
S'bear'
p1634
sI1634
S'Deserves'
p1635
sI1635
S'speak--it'
p1636
sI1636
S'words'
p1637
sI1637
S'thrives'
p1638
sI1638
S'Because'
p1639
sI1639
S'eyes?'
p1640
sI1640
S'she'
p1641
sI1641
S'dangerous'
p1642
sI1642
S"woo'd,"
p1643
sI1643
S"Lead'st"
p1644
sI1644
S'horns'
p1645
sI1645
S'inkling'
p1646
sI1646
S'accused'
p1647
sI1647
S'once,'
p1648
sI1648
S'viand,'
p1649
sI1649
S'cruel'
p1650
sI1650
S'Pluto'
p1651
sI1651
S'mind,'
p1652
sI1652
S'neither'
p1653
sI1653
S'mutinous;'
p1654
sI1654
S'powers,'
p1655
sI1655
S'joy'
p1656
sI1656
S'deliver'
p1657
sI1657
S'merry'
p1658
sI1658
S'madst'
p1659
sI1659
S'asunder'
p1660
sI1660
S'devour'
p1661
sI1661
S'grain'
p1662
sI1662
S'passing'
p1663
sI1663
S'resolved.'
p1664
sI1664
S'soft-conscienced'
p1665
sI1665
S'Would'
p1666
sI1666
S'thunder-like'
p1667
sI1667
S'kingly-crowned'
p1668
sI1668
S'singularity,'
p1669
sI1669
S'Fie,'
p1670
sI1670
S'together.'
p1671
sI1671
S'done,'
p1672
sI1672
S'done.'
p1673
sI1673
S"Mark'd"
p1674
sI1674
S'tread'
p1675
sI1675
S'own,'
p1676
sI1676
S'belly?'
p1677
sI1677
S'own.'
p1678
sI1678
S'pity.'
p1679
sI1679
S'armies?'
p1680
sI1680
S'gaze'
p1681
sI1681
S'attends'
p1682
sI1682
S'spoons,'
p1683
sI1683
S'belly,'
p1684
sI1684
S"answer'd,"
p1685
sI1685
S'home,'
p1686
sI1686
S'rich,'
p1687
sI1687
S'nuptial'
p1688
sI1688
S'smoking'
p1689
sI1689
S'fellow'
p1690
sI1690
S'present'
p1691
sI1691
S"That's"
p1692
sI1692
S'And'
p1693
sI1693
S'will;'
p1694
sI1694
S'as'
p1695
sI1695
S'will'
p1696
sI1696
S'movers'
p1697
sI1697
S"'True"
p1698
sI1698
S'will.'
p1699
sI1699
S'suckle'
p1700
sI1700
S'almost'
p1701
sI1701
S'thus'
p1702
sI1702
S'You'
p1703
sI1703
S'behind;'
p1704
sI1704
S'valour'
p1705
sI1705
S'strange'
p1706
sI1706
S'party'
p1707
sI1707
S'these?'
p1708
sI1708
S'slave'
p1709
sI1709
S'Third'
p1710
sI1710
S'fielded'
p1711
sI1711
S'shames'
p1712
sI1712
S'usurers;'
p1713
sI1713
S'upon'
p1714
sI1714
S'VOLUMNIA'
p1715
sI1715
S"quarter'd"
p1716
sI1716
S'fierce'
p1717
sI1717
S'audit'
p1718
sI1718
S'off'
p1719
sI1719
S'well'
p1720
sI1720
S'Yet'
p1721
sI1721
S'thought'
p1722
sI1722
S'doors.'
p1723
sI1723
S'Valeria,'
p1724
sI1724
S'pikes,'
p1725
sI1725
S'devise,'
p1726
sI1726
S'returned,'
p1727
sI1727
S'Flower'
p1728
sI1728
S'enemy,'
p1729
sI1729
S'less'
p1730
sI1730
S'Convenient'
p1731
sI1731
S'enemy?'
p1732
sI1732
S'Spies'
p1733
sI1733
S'town,'
p1734
sI1734
S"crack'd"
p1735
sI1735
S'work,'
p1736
sI1736
S'shoes.'
p1737
sI1737
S'town.'
p1738
sI1738
S'since?'
p1739
sI1739
S'proverbs,'
p1740
sI1740
S'warrant'
p1741
sI1741
S'By'
p1742
sI1742
S'resolved'
p1743
sI1743
S"who's"
p1744
sI1744
S'Below'
p1745
sI1745
S'know'
p1746
sI1746
S'presume'
p1747
sI1747
S'like'
p1748
sI1748
S'Within'
p1749
sI1749
S"pinn'd"
p1750
sI1750
S'we,'
p1751
sI1751
S'Penelope'
p1752
sI1752
S'lose'
p1753
sI1753
S'become'
p1754
sI1754
S'tauntingly'
p1755
sI1755
S'therein'
p1756
sI1756
S'beat!'
p1757
sI1757
S'authority'
p1758
sI1758
S'neighbours,'
p1759
sI1759
S'alike.'
p1760
sI1760
S"friends,'"
p1761
sI1761
S'liking'
p1762
sI1762
S'Like'
p1763
sI1763
S'leaden'
p1764
sI1764
S'madam.'
p1765
sI1765
S'lead'
p1766
sI1766
S'Was'
p1767
sI1767
S'lean'
p1768
sI1768
S'madam;'
p1769
sI1769
S'does'
p1770
sI1770
S'madam?'
p1771
sI1771
S'noise'
p1772
sI1772
S'obey'
p1773
sI1773
S'how'
p1774
sI1774
S'petty'
p1775
sI1775
S'worthy'
p1776
sI1776
S'about'
p1777
sI1777
S'yours?'
p1778
sI1778
S'in.'
p1779
sI1779
S'mine.'
p1780
sI1780
S'leash,'
p1781
sI1781
S'farewell.'
p1782
sI1782
S'sweat'
p1783
sI1783
S'tongue'
p1784
sI1784
S'own'
p1785
sI1785
S'deliver.'
p1786
sI1786
S'court,'
p1787
sI1787
S'miscarries'
p1788
sI1788
S'guard'
p1789
sI1789
S'treads'
p1790
sI1790
S'From'
p1791
sI1791
S'fawning'
p1792
sI1792
S'rejoice'
p1793
sI1793
S'Upon'
p1794
sI1794
S'trenches'
p1795
sI1795
S"We'll"
p1796
sI1796
S'buy'
p1797
sI1797
S'blast.'
p1798
sI1798
S'but'
p1799
sI1799
S'tapers'
p1800
sI1800
S'gain'
p1801
sI1801
S'beat'
p1802
sI1802
S'eat'
p1803
sI1803
S'catched'
p1804
sI1804
S'made'
p1805
sI1805
S'wise'
p1806
sI1806
S'places'
p1807
sI1807
S'whether'
p1808
sI1808
S'wish'
p1809
sI1809
S'this,'
p1810
sI1810
S'this.'
p1811
sI1811
S'spot,'
p1812
sI1812
S'below'
p1813
sI1813
S'this?'
p1814
sI1814
S'bearing'
p1815
sI1815
S'tribunes'
p1816
sI1816
S'rightly'
p1817
sI1817
S'Thus'
p1818
sI1818
S'dearth'
p1819
sI1819
S'arms.'
p1820
sI1820
S'arms,'
p1821
sI1821
S'friend;'
p1822
sI1822
S'flight'
p1823
sI1823
S'proceeds'
p1824
sI1824
S'Shall'
p1825
sI1825
S'lately'
p1826
sI1826
S'like.'
p1827
sI1827
S'other'
p1828
sI1828
S'Five'
p1829
sI1829
S'sick'
p1830
sI1830
S'Shalt'
p1831
sI1831
S'proceed.'
p1832
sI1832
S'yours,'
p1833
sI1833
S'again.'
p1834
sI1834
S'Whereby'
p1835
sI1835
S'indeed,'
p1836
sI1836
S'indeed!'
p1837
sI1837
S'stay'
p1838
sI1838
S'again;'
p1839
sI1839
S'chance'
p1840
sI1840
S'death,'
p1841
sI1841
S'repeal'
p1842
sI1842
S'friends'
p1843
sI1843
S'tabour'
p1844
sI1844
S'shall,'
p1845
sI1845
S'news?'
p1846
sI1846
S'shall.'
p1847
sI1847
S'declines;'
p1848
sI1848
S'slaves,'
p1849
sI1849
S'news.'
p1850
s.