(dp0
S'pardon'
p1
I0
sS'Doeg'
p2
I1
sS'Leah'
p3
I2
sS'both'
p4
I3739
sS'yellow'
p5
I3
sS'four'
p6
I4
sS'hath'
p7
I5
sS'Jehoash'
p8
I6
sS'sleep'
p9
I7
sS'abide'
p10
I1386
sS'hanging'
p11
I64
sS'Hushai'
p12
I10
sS'captain'
p13
I11
sS'integrity'
p14
I12
sS'yonder'
p15
I13
sS'consider'
p16
I1703
sS'whose'
p17
I15
sS'hyssop'
p18
I16
sS'Libnah'
p19
I17
sS'intreat'
p20
I19
sS'abundance'
p21
I3627
sS'presents'
p22
I20
sS'neighbours'
p23
I21
sS'Micaiah'
p24
I22
sS'Gadites'
p25
I23
sS'whatsoever'
p26
I24
sS'under'
p27
I25
sS'Obed'
p28
I26
sS'lord'
p29
I27
sS'worth'
p30
I28
sS'carried'
p31
I3948
sS'lack'
p32
I2076
sS'compassion'
p33
I31
sS'void'
p34
I32
sS'hadst'
p35
I229
sS'every'
p36
I35
sS'figs'
p37
I36
sS'wagons'
p38
I38
sS'Remaliah'
p39
I39
sS'bringing'
p40
I40
sS'courageous'
p41
I41
sS'Lest'
p42
I42
sS'Jokneam'
p43
I2759
sS'called'
p44
I3017
sS'clothed'
p45
I46
sS'conceive'
p46
I47
sS'companies'
p47
I48
sS'Ashan'
p48
I50
sS'Lachish'
p49
I51
sS'Zebah'
p50
I52
sS'Go'
p51
I53
sS'clothes'
p52
I56
sS'favoured'
p53
I57
sS'chew'
p54
I58
sS'parted'
p55
I59
sS'Moza'
p56
I413
sS'force'
p57
I61
sS'nigh'
p58
I62
sS'sodomites'
p59
I423
sS'trodden'
p60
I616
sS'sabbath'
p61
I66
sS'horn'
p62
I67
sS'nail'
p63
I68
sS'second'
p64
I69
sS'street'
p65
I70
sS'blaspheme'
p66
I2897
sS'valiant'
p67
I72
sS'creepeth'
p68
I73
sS'Hadoram'
p69
I74
sS'even'
p70
I75
sS'established'
p71
I76
sS'evermore'
p72
I77
sS'hide'
p73
I78
sS'Hormah'
p74
I79
sS'solemn'
p75
I81
sS'hate'
p76
I82
sS'beaten'
p77
I83
sS'Beersheba'
p78
I84
sS'fatness'
p79
I85
sS'lights'
p80
I87
sS'above'
p81
I89
sS'Put'
p82
I90
sS'new'
p83
I91
sS'Rephidim'
p84
I92
sS'ever'
p85
I93
sS'told'
p86
I94
sS'Huppim'
p87
I3792
sS'Anathoth'
p88
I95
sS'Havilah'
p89
I96
sS'Horeb'
p90
I97
sS'herb'
p91
I98
sS'Pisgah'
p92
I99
sS'men'
p93
I100
sS'kindred'
p94
I101
sS'Mizpah'
p95
I102
sS'here'
p96
I103
sS'herd'
p97
I104
sS'Ocran'
p98
I105
sS'met'
p99
I106
sS'brooks'
p100
I1401
sS'Mahanaim'
p101
I108
sS'hers'
p102
I109
sS'quite'
p103
I1402
sS'interpret'
p104
I111
sS'dry'
p105
I112
sS'Becher'
p106
I684
sS'substance'
p107
I114
sS'daughter'
p108
I115
sS'Abihail'
p109
I2460
sS'Carmelite'
p110
I116
sS'leaves'
p111
I117
sS'Shem'
p112
I118
sS'Jephthah'
p113
I119
sS'controversy'
p114
I120
sS'buckler'
p115
I121
sS'howbeit'
p116
I122
sS'smoke'
p117
I123
sS'leaven'
p118
I124
sS'surely'
p119
I3440
sS'changes'
p120
I126
sS'punishment'
p121
I127
sS'Stand'
p122
I1403
sS'golden'
p123
I129
sS'divide'
p124
I130
sS'straw'
p125
I131
sS'stink'
p126
I132
sS'passeth'
p127
I133
sS'brought'
p128
I134
sS'Also'
p129
I135
sS'threshingfloor'
p130
I136
sS'Book'
p131
I137
sS'Ahitub'
p132
I138
sS'Riblah'
p133
I139
sS'Syrians'
p134
I140
sS'Zilpah'
p135
I141
sS'Kirjathsepher'
p136
I142
sS'would'
p137
I145
sS'army'
p138
I146
sS'arms'
p139
I148
sS'borrow'
p140
I1623
sS'asses'
p141
I150
sS'call'
p142
I152
sS'therefore'
p143
I153
sS'Megiddo'
p144
I154
sS'strike'
p145
I155
sS'wentest'
p146
I156
sS'turtledoves'
p147
I157
sS'until'
p148
I158
sS'calf'
p149
I159
sS'Elkanah'
p150
I160
sS'separated'
p151
I161
sS'Maacah'
p152
I162
sS'mantle'
p153
I3085
sS'Kohath'
p154
I3982
sS'holy'
p155
I164
sS'pisseth'
p156
I166
sS'wars'
p157
I168
sS'reign'
p158
I169
sS'hurt'
p159
I170
sS'grief'
p160
I171
sS'myrrh'
p161
I172
sS'dukes'
p162
I173
sS'continual'
p163
I174
sS'midst'
p164
I175
sS'inhabited'
p165
I1053
sS'Perizzite'
p166
I1067
sS'shoot'
p167
I34
sS'shepherds'
p168
I179
sS'word'
p169
I180
sS'room'
p170
I181
sS'divorced'
p171
I182
sS'pursue'
p172
I183
sS'meeteth'
p173
I184
sS'work'
p174
I185
sS'roof'
p175
I186
sS'ere'
p176
I187
sS'groves'
p177
I188
sS'itself'
p178
I2783
sS'Amalekite'
p179
I190
sS'leaped'
p180
I191
sS'Hagar'
p181
I192
sS'my'
p182
I193
sS'Gatam'
p183
I3694
sS'lodged'
p184
I2784
sS'vanities'
p185
I149
sS'serpent'
p186
I197
sS'give'
p187
I198
sS'loosed'
p188
I199
sS'Lo'
p189
I200
sS'Whereas'
p190
I1197
sS'taskmasters'
p191
I202
sS'honey'
p192
I203
sS'Hushathite'
p193
I1215
sS'caused'
p194
I2074
sS'want'
p195
I207
sS'Lord'
p196
I208
sS'One'
p197
I3316
sS'rid'
p198
I2788
sS'parcel'
p199
I858
sS'Nay'
p200
I727
sS'end'
p201
I214
sS'thing'
p202
I1421
sS'inhabitants'
p203
I216
sS'anguish'
p204
I217
sS'song'
p205
I2102
sS'how'
p206
I1319
sS'hot'
p207
I220
sS'Jordan'
p208
I221
sS'trusted'
p209
I222
sS'answer'
p210
I223
sS'gate'
p211
I224
sS'Pekah'
p212
I225
sS'chase'
p213
I2791
sS'A'
p214
I228
sS'rise'
p215
I33
sS'beauty'
p216
I165
sS'lad'
p217
I231
sS'Nineveh'
p218
I232
sS'after'
p219
I233
sS'confirmed'
p220
I235
sS'shewbread'
p221
I1410
sS'Rekem'
p222
I237
sS'wrong'
p223
I238
sS'lay'
p224
I239
sS'twined'
p225
I240
sS'law'
p226
I241
sS'oblation'
p227
I2107
sS'All'
p228
I244
sS'armed'
p229
I3057
sS'calves'
p230
I245
sS'third'
p231
I246
sS'liveth'
p232
I247
sS'Moabites'
p233
I249
sS'maintain'
p234
I250
sS'green'
p235
I251
sS'pleaseth'
p236
I1431
sS'enter'
p237
I253
sS'aloud'
p238
I254
sS'Speak'
p239
I1432
sS'Naamah'
p240
I3942
sS'reproved'
p241
I256
sS'wind'
p242
I257
sS'wine'
p243
I258
sS'Kirjathjearim'
p244
I1567
sS'blind'
p245
I260
sS'woollen'
p246
I261
sS'interpretation'
p247
I262
sS'office'
p248
I264
sS'dreamed'
p249
I265
sS'over'
p250
I266
sS'Intreat'
p251
I267
sS'satisfied'
p252
I268
sS'befall'
p253
I270
sS'clave'
p254
I271
sS'oven'
p255
I272
sS'fetched'
p256
I1434
sS'rewarded'
p257
I274
sS'wrought'
p258
I275
sS'wickedness'
p259
I276
sS'before'
p260
I277
sS'fir'
p261
I278
sS'beside'
p262
I742
sS'His'
p263
I281
sS'wickedly'
p264
I282
sS'plainly'
p265
I3462
sS'fit'
p266
I284
sS'mandrakes'
p267
I285
sS'heretofore'
p268
I286
sS'sheaf'
p269
I287
sS'befallen'
p270
I1113
sS'Here'
p271
I290
sS'embalmed'
p272
I291
sS'destroyed'
p273
I292
sS'spoken'
p274
I1436
sS'Observe'
p275
I294
sS'fig'
p276
I295
sS'discomfited'
p277
I296
sS'nobles'
p278
I297
sS'weeks'
p279
I298
sS'Machir'
p280
I299
sS'Him'
p281
I300
sS'shear'
p282
I301
sS'then'
p283
I302
sS'them'
p284
I303
sS'There'
p285
I1438
sS'grievous'
p286
I305
sS'diseases'
p287
I306
sS'thee'
p288
I307
sS'safe'
p289
I71
sS'Seth'
p290
I309
sS'break'
p291
I310
sS'band'
p292
I311
sS'whomsoever'
p293
I3058
sS'Omar'
p294
I312
sS'they'
p295
I313
sS'sixteen'
p296
I314
sS'silver'
p297
I315
sS'bank'
p298
I316
sS'bread'
p299
I317
sS'reigned'
p300
I3984
sS'Shedeur'
p301
I248
sS'swarest'
p302
I319
sS'Timna'
p303
I321
sS'Gibeah'
p304
I1442
sS'rocks'
p305
I323
sS'Nimshi'
p306
I324
sS'Hath'
p307
I325
sS'leaned'
p308
I326
sS'roast'
p309
I327
sS'each'
p310
I328
sS'went'
p311
I329
sS'side'
p312
I330
sS'bone'
p313
I331
sS'mean'
p314
I332
sS'lifted'
p315
I333
sS'Shaphan'
p316
I335
sS'Pharez'
p317
I336
sS'Naaman'
p318
I3941
sS'garment'
p319
I338
sS'affliction'
p320
I3471
sS'husband'
p321
I1632
sS'bowls'
p322
I340
sS'skins'
p323
I341
sS'Damascus'
p324
I342
sS'taught'
p325
I343
sS'hanged'
p326
I345
sS'reached'
p327
I3473
sS'Woe'
p328
I346
sS'flock'
p329
I347
sS'ward'
p330
I348
sS'slew'
p331
I349
sS'Shaphat'
p332
I350
sS'borne'
p333
I351
sS'Hezekiah'
p334
I1078
sS'drove'
p335
I353
sS'network'
p336
I354
sS'driving'
p337
I355
sS'Hivites'
p338
I2511
sS'god'
p339
I356
sS'broughtest'
p340
I357
sS'washed'
p341
I358
sS'forty'
p342
I359
sS'vessels'
p343
I360
sS'fellows'
p344
I2084
sS'strangers'
p345
I362
sS'laid'
p346
I363
sS'bonnets'
p347
I365
sS'lain'
p348
I367
sS'got'
p349
I368
sS'forth'
p350
I369
sS'Zebulun'
p351
I371
sS'Josiah'
p352
I372
sS'foundation'
p353
I373
sS'Abiram'
p354
I374
sS'Ahab'
p355
I375
sS'hang'
p356
I376
sS'deceived'
p357
I3652
sS'Dodo'
p358
I378
sS'little'
p359
I1454
sS'free'
p360
I380
sS'mourning'
p361
I381
sS'carcase'
p362
I382
sS'town'
p363
I4065
sS'Segub'
p364
I37
sS'whereupon'
p365
I384
sS'rain'
p366
I757
sS'grapes'
p367
I386
sS'mistress'
p368
I388
sS'Bukki'
p369
I389
sS'knit'
p370
I390
sS'Ahaz'
p371
I391
sS'created'
p372
I393
sS'Hori'
p373
I394
sS'needlework'
p374
I395
sS'days'
p375
I396
sS'leanfleshed'
p376
I397
sS'steward'
p377
I398
sS'cheweth'
p378
I399
sS'licked'
p379
I2771
sS'Carry'
p380
I401
sS'loud'
p381
I402
sS'Mizraim'
p382
I403
sS'shittim'
p383
I404
sS'enjoy'
p384
I791
sS'thereon'
p385
I406
sS'foreskins'
p386
I407
sS'pots'
p387
I3480
sS'wast'
p388
I409
sS'thereof'
p389
I410
sS'hearing'
p390
I411
sS'wash'
p391
I412
sS'Bathsheba'
p392
I414
sS'awoke'
p393
I415
sS'thick'
p394
I416
sS'hoof'
p395
I417
sS'dwelt'
p396
I418
sS'Zelophehad'
p397
I419
sS'Jebusites'
p398
I420
sS'service'
p399
I421
sS'top'
p400
I422
sS'neck'
p401
I3505
sS'master'
p402
I424
sS'too'
p403
I425
sS'dwell'
p404
I426
sS'legs'
p405
I427
sS'bitter'
p406
I428
sS'dogs'
p407
I429
sS'toe'
p408
I430
sS'curtains'
p409
I431
sS'February'
p410
I4061
sS'tool'
p411
I432
sS'villages'
p412
I433
sS'serve'
p413
I434
sS'took'
p414
I435
sS'rejected'
p415
I436
sS'wisdom'
p416
I2564
sS'Jeush'
p417
I438
sS'scorpions'
p418
I439
sS'somewhat'
p419
I441
sS'wasted'
p420
I442
sS'healed'
p421
I167
sS'peculiar'
p422
I444
sS'bidden'
p423
I446
sS'mercy'
p424
I447
sS'Set'
p425
I448
sS'Salma'
p426
I450
sS'Potipherah'
p427
I452
sS'Nahor'
p428
I453
sS'tree'
p429
I454
sS'compassed'
p430
I455
sS'nations'
p431
I456
sS'genealogies'
p432
I457
sS'matter'
p433
I458
sS'See'
p434
I459
sS'flame'
p435
I460
sS'speaking'
p436
I1468
sS'iron'
p437
I462
sS'spoiled'
p438
I463
sS'blasphemed'
p439
I464
sS'lawgiver'
p440
I465
sS'Achan'
p441
I466
sS'fashion'
p442
I467
sS'seer'
p443
I468
sS'palace'
p444
I469
sS'ran'
p445
I470
sS'ram'
p446
I471
sS'mind'
p447
I472
sS'mine'
p448
I473
sS'Abishua'
p449
I474
sS'raw'
p450
I475
sS'settest'
p451
I3753
sS'seed'
p452
I476
sS'manner'
p453
I477
sS'victual'
p454
I3042
sS'seen'
p455
I478
sS'seem'
p456
I479
sS'seek'
p457
I480
sS'Zaccur'
p458
I481
sS'Chemosh'
p459
I482
sS'forced'
p460
I1298
sS'Them'
p461
I484
sS'strength'
p462
I485
sS'Egyptian'
p463
I488
sS'thoroughly'
p464
I489
sS'latter'
p465
I490
sS'snow'
p466
I491
sS'lavers'
p467
I492
sS'Asa'
p468
I494
sS'overtook'
p469
I495
sS'They'
p470
I496
sS'laughed'
p471
I497
sS'Ask'
p472
I498
sS'pilgrimage'
p473
I499
sS'Dothan'
p474
I500
sS'rider'
p475
I501
sS'lamps'
p476
I3088
sS'Seir'
p477
I502
sS'Zippor'
p478
I503
sS'shall'
p479
I505
sS'desert'
p480
I3421
sS'Jotham'
p481
I506
sS'Tekoite'
p482
I507
sS'what'
p483
I2141
sS'wells'
p484
I509
sS'passover'
p485
I510
sS'Jebus'
p486
I511
sS'mouth'
p487
I512
sS'plenty'
p488
I513
sS'ashes'
p489
I2376
sS'proverb'
p490
I514
sS'Netophathite'
p491
I1480
sS'grave'
p492
I516
sS'shalt'
p493
I517
sS'carnally'
p494
I518
sS'camps'
p495
I519
sS'grove'
p496
I521
sS'Ahohite'
p497
I522
sS'consumed'
p498
I523
sS'Javan'
p499
I524
sS'dog'
p500
I525
sS'accounted'
p501
I526
sS'forsook'
p502
I527
sS'thunder'
p503
I528
sS'breathed'
p504
I529
sS'Ahithophel'
p505
I530
sS'Jerahmeel'
p506
I531
sS'oppress'
p507
I532
sS'came'
p508
I533
sS'saying'
p509
I534
sS'chariot'
p510
I535
sS'Aroer'
p511
I536
sS'hunger'
p512
I537
sS'Shelomith'
p513
I538
sS'herds'
p514
I1482
sS'liest'
p515
I540
sS'sown'
p516
I542
sS'earth'
p517
I543
sS'Tamar'
p518
I544
sS'surety'
p519
I545
sS'judges'
p520
I546
sS'Shobal'
p521
I547
sS'sentence'
p522
I549
sS'Michmash'
p523
I550
sS'Shobab'
p524
I551
sS'Rameses'
p525
I552
sS'commandment'
p526
I553
sS'bush'
p527
I554
sS'Peradventure'
p528
I555
sS'touched'
p529
I556
sS'rich'
p530
I557
sS'pursuing'
p531
I3241
sS'lodge'
p532
I559
sS'swarms'
p533
I3262
sS'polled'
p534
I1723
sS'Bethshean'
p535
I561
sS'do'
p536
I562
sS'10'
p537
I1489
sS'Nevertheless'
p538
I565
sS'knowest'
p539
I566
sS'sojourneth'
p540
I567
sS'watch'
p541
I568
sS'13'
p542
I1490
sS'raiment'
p543
I570
sS'next'
p544
I3229
sS'altogether'
p545
I571
sS'report'
p546
I572
sS'nurse'
p547
I2154
sS'bar'
p548
I575
sS'avenger'
p549
I576
sS'countries'
p550
I577
sS'fields'
p551
I578
sS'Over'
p552
I579
sS'16'
p553
I1495
sS'beeves'
p554
I581
sS'9'
p555
I2803
sS'bay'
p556
I582
sS'hasted'
p557
I583
sS'bad'
p558
I584
sS'avenged'
p559
I585
sS'stead'
p560
I586
sS'troop'
p561
I587
sS'release'
p562
I588
sS'steal'
p563
I589
sS'ears'
p564
I590
sS'blew'
p565
I449
sS'fair'
p566
I592
sS'wrest'
p567
I593
sS'winepress'
p568
I3486
sS'Hittites'
p569
I595
sS'communed'
p570
I3924
sS'eleven'
p571
I2973
sS'Abide'
p572
I596
sS'blameless'
p573
I597
sS'observed'
p574
I598
sS'full'
p575
I2161
sS'cattle'
p576
I600
sS'corrupt'
p577
I601
sS'Shelumiel'
p578
I3515
sS'hammer'
p579
I603
sS'best'
p580
I604
sS'Baalim'
p581
I605
sS'said'
p582
I606
sS'Run'
p583
I607
sS'shaven'
p584
I608
sS'lots'
p585
I609
sS'away'
p586
I610
sS'Rise'
p587
I611
sS'rings'
p588
I612
sS'shaved'
p589
I613
sS'continually'
p590
I614
sS'finger'
p591
I615
sS'Cush'
p592
I617
sS'Ahira'
p593
I618
sS'Happy'
p594
I803
sS'approach'
p595
I619
sS'shields'
p596
I620
sS'preserve'
p597
I621
sS'we'
p598
I622
sS'never'
p599
I623
sS'vows'
p600
I624
sS'rolled'
p601
I625
sS'confusion'
p602
I626
sS'yesternight'
p603
I627
sS'weak'
p604
I628
sS'ignorance'
p605
I629
sS'staves'
p606
I630
sS'weary'
p607
I631
sS'Nimrod'
p608
I3389
sS'devour'
p609
I632
sS'Benhadad'
p610
I2088
sS'hundreds'
p611
I634
sS'Drink'
p612
I3290
sS'blasted'
p613
I636
sS'Otherwise'
p614
I637
sS'pity'
p615
I638
sS'received'
p616
I639
sS'repented'
p617
I3523
sS'Elizur'
p618
I640
sS'deceitfully'
p619
I2168
sS'country'
p620
I642
sS'ill'
p621
I643
sS'Mishma'
p622
I644
sS'Blessed'
p623
I645
sS'against'
p624
I646
sS'Bring'
p625
I647
sS'faces'
p626
I648
sS'greater'
p627
I3787
sS'Syrian'
p628
I649
sS'asked'
p629
I650
sS'Mesha'
p630
I651
sS'spear'
p631
I652
sS'vexed'
p632
I653
sS'appeared'
p633
I654
sS'royal'
p634
I655
sS'vain'
p635
I656
sS'Am'
p636
I3070
sS'height'
p637
I658
sS'Lamech'
p638
I659
sS'springs'
p639
I660
sS'trust'
p640
I3911
sS'Hamul'
p641
I662
sS'speak'
p642
I663
sS'strong'
p643
I2172
sS'proceeded'
p644
I665
sS'ropes'
p645
I666
sS'slay'
p646
I1516
sS'three'
p647
I668
sS'been'
p648
I669
sS'.'
p649
I670
sS'difference'
p650
I2111
sS'much'
p651
I671
sS'Gideoni'
p652
I672
sS'Your'
p653
I2250
sS'unleavened'
p654
I675
sS'entered'
p655
I676
sS'thrice'
p656
I677
sS'life'
p657
I679
sS'ordinance'
p658
I2269
sS'families'
p659
I681
sS'innocent'
p660
I682
sS'prosperous'
p661
I683
sS'Meraioth'
p662
I1554
sS'turned'
p663
I1517
sS'concerning'
p664
I686
sS'onyx'
p665
I687
sS'Penuel'
p666
I688
sS'lift'
p667
I690
sS'cubit'
p668
I3808
sS'child'
p669
I692
sS'Hezron'
p670
I693
sS'Cain'
p671
I694
sS'doth'
p672
I695
sS'gracious'
p673
I696
sS'save'
p674
I816
sS'sheepshearers'
p675
I698
sS'reddish'
p676
I699
sS'teraphim'
p677
I700
sS'Elim'
p678
I701
sS'Beware'
p679
I702
sS'reapers'
p680
I703
sS'Shemaiah'
p681
I2257
sS'air'
p682
I705
sS'Canaan'
p683
I706
sS'near'
p684
I707
sS'melted'
p685
I708
sS'parched'
p686
I709
sS'leprosy'
p687
I710
sS'Achbor'
p688
I711
sS'voice'
p689
I712
sS'Ephraimites'
p690
I713
sS'buried'
p691
I1524
sS'purifying'
p692
I49
sS'changed'
p693
I716
sS'have'
p694
I3537
sS'Kedemoth'
p695
I2307
sS'played'
p696
I147
sS'Obadiah'
p697
I3564
sS'is'
p698
I719
sS'it'
p699
I721
sS'shame'
p700
I722
sS'eighteen'
p701
I723
sS'brake'
p702
I724
sS'in'
p703
I725
sS'Obededom'
p704
I213
sS'Tell'
p705
I728
sS'Golan'
p706
I729
sS'if'
p707
I730
sS'grown'
p708
I731
sS'memorial'
p709
I732
sS'Ephraim'
p710
I3540
sS'bottles'
p711
I733
sS'Zabad'
p712
I1757
sS'fatherless'
p713
I735
sS'perform'
p714
I736
sS'things'
p715
I737
sS'make'
p716
I738
sS'bedchamber'
p717
I739
sS'wound'
p718
I740
sS'rebellion'
p719
I741
sS'forehead'
p720
I279
sS'Did'
p721
I1393
sS'Pedahzur'
p722
I744
sS'belly'
p723
I745
sS'elders'
p724
I746
sS'handmaids'
p725
I747
sS'plates'
p726
I748
sS'several'
p727
I749
sS'sodden'
p728
I750
sS'bells'
p729
I751
sS'comforted'
p730
I2364
sS'Do'
p731
I1532
sS'governors'
p732
I753
sS'swell'
p733
I754
sS'blue'
p734
I755
sS'tops'
p735
I756
sS'evil'
p736
I385
sS'hand'
p737
I758
sS'delight'
p738
I759
sS'kin'
p739
I760
sS'Admah'
p740
I761
sS'Jared'
p741
I2187
sS'jealous'
p742
I763
sS'thoughts'
p743
I764
sS'kid'
p744
I765
sS'butter'
p745
I766
sS'kept'
p746
I767
sS'whereby'
p747
I768
sS'thy'
p748
I769
sS'awaked'
p749
I2876
sS'possessed'
p750
I771
sS'Horites'
p751
I772
sS'inherit'
p752
I773
sS'Jaalam'
p753
I774
sS'fulness'
p754
I775
sS'mother'
p755
I776
sS'hearts'
p756
I777
sS'the'
p757
I778
sS'Perizzites'
p758
I779
sS'Hachilah'
p759
I780
sS'left'
p760
I782
sS'Sarah'
p761
I783
sS'Sarai'
p762
I784
sS'After'
p763
I3551
sS'departed'
p764
I786
sS'just'
p765
I787
sS'reckoned'
p766
I788
sS'yea'
p767
I789
sS'gods'
p768
I790
sS'masons'
p769
I792
sS'forsaken'
p770
I793
sS'assigned'
p771
I794
sS'maketh'
p772
I796
sS'groweth'
p773
I797
sS'divideth'
p774
I798
sS'Elishama'
p775
I799
sS'depart'
p776
I2193
sS'32'
p777
I3192
sS'wafers'
p778
I801
sS'yet'
p779
I802
sS'secure'
p780
I486
sS'errand'
p781
I2976
sS'hills'
p782
I805
sS'ease'
p783
I664
sS'had'
p784
I807
sS'wings'
p785
I2882
sS'shout'
p786
I809
sS'spread'
p787
I810
sS'Surely'
p788
I811
sS'board'
p789
I812
sS'sitteth'
p790
I813
sS'prison'
p791
I814
sS'Gad'
p792
I1051
sS'expelled'
p793
I817
sS'gave'
p794
I818
sS'desire'
p795
I819
sS'mocked'
p796
I820
sS'bands'
p797
I821
sS'outmost'
p798
I822
sS'Three'
p799
I823
sS'Teman'
p800
I824
sS'beast'
p801
I2438
sS'commandments'
p802
I2197
sS'judge'
p803
I827
sS'shadow'
p804
I828
sS'burnt'
p805
I829
sS'dreams'
p806
I830
sS'apart'
p807
I831
sS'shoulder'
p808
I832
sS'soever'
p809
I833
sS'Art'
p810
I834
sS'gift'
p811
I835
sS'zeal'
p812
I837
sS'Rephaim'
p813
I838
sS'remnant'
p814
I840
sS'northward'
p815
I1770
sS'ninety'
p816
I842
sS'Ard'
p817
I843
sS'Are'
p818
I844
sS'night'
p819
I845
sS'pillar'
p820
I2890
sS'draw'
p821
I3048
sS'Again'
p822
I848
sS'right'
p823
I849
sS'old'
p824
I850
sS'deal'
p825
I851
sS'people'
p826
I852
sS'staff'
p827
I3606
sS'riches'
p828
I3512
sS'crown'
p829
I853
sS'dead'
p830
I854
sS'captive'
p831
I855
sS'comest'
p832
I3562
sS'escape'
p833
I856
sS'burneth'
p834
I857
sS'creep'
p835
I994
sS'enemies'
p836
I859
sS'for'
p837
I860
sS'bottom'
p838
I861
sS'purple'
p839
I862
sS'establish'
p840
I2204
sS'Hiram'
p841
I864
sS'plucked'
p842
I865
sS'loins'
p843
I1065
sS'Padanaram'
p844
I867
sS'serpents'
p845
I868
sS'steps'
p846
I869
sS'beget'
p847
I870
sS'drink'
p848
I3805
sS'He'
p849
I871
sS'defileth'
p850
I873
sS'floweth'
p851
I875
sS'corn'
p852
I877
sS'Jericho'
p853
I1132
sS'Kibrothhattaavah'
p854
I3539
sS'Thine'
p855
I880
sS'yoke'
p856
I1161
sS'Euphrates'
p857
I3760
sS'Epher'
p858
I2898
sS'keeper'
p859
I883
sS'post'
p860
I884
sS'bury'
p861
I885
sS'shaken'
p862
I886
sS'First'
p863
I887
sS'Ammonite'
p864
I1200
sS'foreskin'
p865
I889
sS'theirs'
p866
I890
sS'months'
p867
I891
sS'Gomer'
p868
I893
sS'Joktan'
p869
I894
sS'commit'
p870
I895
sS'lacked'
p871
I896
sS'Jethro'
p872
I897
sS'twilight'
p873
I3854
sS'badgers'
p874
I1295
sS'duke'
p875
I899
sS'raised'
p876
I900
sS'faint'
p877
I2211
sS'Uriel'
p878
I1312
sS'presence'
p879
I902
sS'prisoners'
p880
I1330
sS'nought'
p881
I904
sS'bound'
p882
I905
sS'son'
p883
I907
sS'candlesticks'
p884
I1350
sS'multiply'
p885
I909
sS'Aaron'
p886
I910
sS'sow'
p887
I911
sS'forgat'
p888
I912
sS'uncleanness'
p889
I913
sS'Bethanath'
p890
I914
sS'Shuthelah'
p891
I3600
sS'east'
p892
I915
sS'despised'
p893
I916
sS'Amen'
p894
I1268
sS'suffice'
p895
I918
sS'sojourner'
p896
I919
sS'fight'
p897
I921
sS'virgin'
p898
I922
sS'fought'
p899
I923
sS'Shuah'
p900
I924
sS'way'
p901
I925
sS'greatness'
p902
I926
sS'sojourned'
p903
I928
sS'was'
p904
I929
sS'war'
p905
I930
sS'Abinoam'
p906
I931
sS'Sodom'
p907
I932
sS'Adullamite'
p908
I933
sS'Peninnah'
p909
I934
sS'head'
p910
I935
sS'therefrom'
p911
I1522
sS'offering'
p912
I937
sS'offer'
p913
I938
sS'January'
p914
I939
sS'heal'
p915
I1539
sS'garments'
p916
I941
sS'heat'
p917
I942
sS'Hazael'
p918
I943
sS'hear'
p919
I944
sS'heap'
p920
I945
sS'Abiel'
p921
I946
sS'blindness'
p922
I947
sS'removed'
p923
I948
sS'true'
p924
I949
sS'counsel'
p925
I950
sS'dowry'
p926
I951
sS'moveth'
p927
I952
sS'genealogy'
p928
I953
sS'born'
p929
I954
sS'morning'
p930
I1625
sS'bounds'
p931
I956
sS'tell'
p932
I957
sS'drave'
p933
I959
sS'sapphire'
p934
I960
sS'Dishon'
p935
I962
sS'Benjamite'
p936
I963
sS'feet'
p937
I2462
sS'prayed'
p938
I964
sS'hewers'
p939
I965
sS'gather'
p940
I3582
sS'proved'
p941
I966
sS'sticks'
p942
I1704
sS'sheweth'
p943
I2222
sS'locust'
p944
I969
sS'Six'
p945
I971
sS'Aphek'
p946
I972
sS'covers'
p947
I973
sS'sale'
p948
I974
sS'Mizzah'
p949
I975
sS'promised'
p950
I976
sS'Gaza'
p951
I977
sS'20'
p952
I2333
sS'psalteries'
p953
I980
sS'Sin'
p954
I981
sS'willingly'
p955
I982
sS'looked'
p956
I3586
sS'weaned'
p957
I984
sS'faithful'
p958
I985
sS'no'
p959
I986
sS'ends'
p960
I3679
sS'herdmen'
p961
I987
sS'when'
p962
I988
sS'blesseth'
p963
I989
sS'uttered'
p964
I990
sS'flood'
p965
I991
sS'desireth'
p966
I992
sS'falsely'
p967
I993
sS'smell'
p968
I996
sS'circumcise'
p969
I997
sS'Izharites'
p970
I998
sS"'s"
p971
I1000
sS'Ebed'
p972
I1001
sS'Kabzeel'
p973
I1002
sS'ointment'
p974
I1003
sS'guiltless'
p975
I1004
sS'killeth'
p976
I1005
sS'mightily'
p977
I1006
sS'Eber'
p978
I1007
sS'sinneth'
p979
I1009
sS'journey'
p980
I1010
sS'warp'
p981
I1011
sS'Korah'
p982
I1012
sS'occasion'
p983
I3590
sS'talents'
p984
I1015
sS'died'
p985
I1016
sS'younger'
p986
I1017
sS'Jehiel'
p987
I1018
sS'fastened'
p988
I1019
sS'longer'
p989
I1020
sS'bestowed'
p990
I1022
sS'sacks'
p991
I1023
sS'Pihahiroth'
p992
I1024
sS'together'
p993
I1025
sS'uncovered'
p994
I1026
sS'Second'
p995
I1028
sS'Mahlon'
p996
I2616
sS'Dumah'
p997
I1030
sS'time'
p998
I1031
sS'push'
p999
I1032
sS'fasten'
p1000
I2051
sS'rib'
p1001
I2790
sS'backward'
p1002
I1034
sS'restored'
p1003
I1035
sS'songs'
p1004
I1036
sS'breadth'
p1005
I1037
sS'Whose'
p1006
I3594
sS'rob'
p1007
I1038
sS'Rezin'
p1008
I1039
sS'rod'
p1009
I1040
sS'souls'
p1010
I1041
sS'known'
p1011
I2235
sS'Hararite'
p1012
I1043
sS'skin'
p1013
I1044
sS'battle'
p1014
I1045
sS'rot'
p1015
I1047
sS'menservants'
p1016
I1048
sS'discern'
p1017
I1049
sS'devoted'
p1018
I1050
sS'certainly'
p1019
I1052
sS'hold'
p1020
I176
sS'Dan'
p1021
I1054
sS'father'
p1022
I1055
sS'vex'
p1023
I1056
sS'passage'
p1024
I1057
sS'answered'
p1025
I1058
sS'charge'
p1026
I1059
sS'foursquare'
p1027
I1060
sS'carpenters'
p1028
I1061
sS'seeketh'
p1029
I1062
sS'terror'
p1030
I1064
sS'Let'
p1031
I866
sS'suffered'
p1032
I1066
sS'must'
p1033
I177
sS'oversight'
p1034
I1068
sS'me'
p1035
I178
sS'Whoso'
p1036
I3597
sS'exalted'
p1037
I1071
sS'plaister'
p1038
I1072
sS'parable'
p1039
I657
sS'Oreb'
p1040
I1074
sS'choice'
p1041
I1075
sS'congregation'
p1042
I1076
sS'mourn'
p1043
I1077
sS'Ebiasaph'
p1044
I2893
sS'trouble'
p1045
I1079
sS'fretting'
p1046
I400
sS'Where'
p1047
I1081
sS'feeble'
p1048
I1082
sS'Abram'
p1049
I1083
sS'dim'
p1050
I1084
sS'perceived'
p1051
I1085
sS'clouds'
p1052
I1086
sS'Nebajoth'
p1053
I1575
sS'did'
p1054
I1088
sS'die'
p1055
I1089
sS'dig'
p1056
I1090
sS'posts'
p1057
I1091
sS'brother'
p1058
I1092
sS'keepers'
p1059
I920
sS'standards'
p1060
I1094
sS'leave'
p1061
I1095
sS'Geba'
p1062
I1096
sS'Adonijah'
p1063
I1097
sS'quick'
p1064
I1098
sS'woven'
p1065
I1008
sS'round'
p1066
I1100
sS'shave'
p1067
I1101
sS'upper'
p1068
I1102
sS'talked'
p1069
I1104
sS'Deuel'
p1070
I1105
sS'Amorites'
p1071
I3601
sS'sign'
p1072
I1168
sS'wherefore'
p1073
I1109
sS'Ahiezer'
p1074
I1110
sS'dried'
p1075
I1111
sS'run'
p1076
I2932
sS'bake'
p1077
I1114
sS'tarried'
p1078
I1116
sS'curse'
p1079
I1117
sS'Abishag'
p1080
I1118
sS'appear'
p1081
I1119
sS'Abishai'
p1082
I1120
sS'axes'
p1083
I1121
sS'favour'
p1084
I1122
sS'melt'
p1085
I1123
sS'pleased'
p1086
I3604
sS'business'
p1087
I3154
sS'Hear'
p1088
I1126
sS'Hagarites'
p1089
I2617
sS'order'
p1090
I1556
sS'Gozan'
p1091
I1129
sS'filled'
p1092
I1130
sS'hairy'
p1093
I1131
sS'burn'
p1094
I878
sS'honour'
p1095
I1135
sS'hairs'
p1096
I1136
sS'Pul'
p1097
I2445
sS'understanding'
p1098
I1138
sS'water'
p1099
I1139
sS'twentieth'
p1100
I1140
sS'sojourners'
p1101
I1141
sS'alone'
p1102
I1142
sS'Zeboim'
p1103
I1143
sS'refused'
p1104
I2938
sS'My'
p1105
I1145
sS'earthquake'
p1106
I1146
sS'change'
p1107
I1147
sS'Saul'
p1108
I1148
sS'avenging'
p1109
I1149
sS'redemption'
p1110
I1150
sS'thirty'
p1111
I1151
sS'Moladah'
p1112
I1152
sS'root'
p1113
I1153
sS'saws'
p1114
I1154
sS'guilty'
p1115
I1155
sS'uprightness'
p1116
I1156
sS'bow'
p1117
I1157
sS'Rebekah'
p1118
I2439
sS'descended'
p1119
I1158
sS'Methuselah'
p1120
I881
sS'therein'
p1121
I3894
sS'Oboth'
p1122
I1163
sS'remaineth'
p1123
I1164
sS'hither'
p1124
I1166
sS'love'
p1125
I1167
sS'defile'
p1126
I196
sS'besought'
p1127
I1170
sS'Tekoah'
p1128
I1171
sS'When'
p1129
I1173
sS'bloody'
p1130
I1174
sS'Shammah'
p1131
I1175
sS'withal'
p1132
I1176
sS'Haggith'
p1133
I1177
sS'Therefore'
p1134
I1178
sS'Asshur'
p1135
I1179
sS'Isaac'
p1136
I1180
sS'forefront'
p1137
I1181
sS'swallowed'
p1138
I1182
sS'whereunto'
p1139
I1183
sS'Ziph'
p1140
I1184
sS'wealth'
p1141
I1185
sS'prove'
p1142
I1186
sS'sake'
p1143
I1187
sS'angry'
p1144
I1188
sS'visit'
p1145
I1189
sS'by'
p1146
I2944
sS'vineyard'
p1147
I1191
sS'live'
p1148
I1192
sS'wood'
p1149
I1596
sS'selfsame'
p1150
I1194
sS'seemeth'
p1151
I3614
sS'angels'
p1152
I1196
sS'household'
p1153
I201
sS'Those'
p1154
I1198
sS'wicked'
p1155
I1199
sS'wept'
p1156
I888
sS'entrance'
p1157
I1201
sS'These'
p1158
I1203
sS'altar'
p1159
I1204
sS'encamped'
p1160
I3674
sS'Husham'
p1161
I1206
sS'Asher'
p1162
I1207
sS'Jacob'
p1163
I3615
sS'long'
p1164
I3477
sS'sawest'
p1165
I2945
sS'olive'
p1166
I1210
sS'beheld'
p1167
I2203
sS'fly'
p1168
I1211
sS'Duke'
p1169
I1212
sS'Pallu'
p1170
I1213
sS'sanctified'
p1171
I1214
sS'jealousy'
p1172
I1437
sS'Kenite'
p1173
I1216
sS'foremost'
p1174
I3307
sS'chastise'
p1175
I1217
sS'soul'
p1176
I1218
sS'nether'
p1177
I1219
sS'Abner'
p1178
I1220
sS'can'
p1179
I1222
sS'maidservants'
p1180
I1223
sS'believed'
p1181
I1224
sS'Our'
p1182
I1225
sS'Absalom'
p1183
I1227
sS'Out'
p1184
I1228
sS'up'
p1185
I3006
sS'heart'
p1186
I1229
sS'dedicated'
p1187
I1230
sS'corrupted'
p1188
I1231
sS'saith'
p1189
I1232
sS'hindmost'
p1190
I1602
sS'Marah'
p1191
I2324
sS'heard'
p1192
I1235
sS'stroke'
p1193
I1236
sS'dropped'
p1194
I1237
sS'Laban'
p1195
I2260
sS'provoke'
p1196
I1239
sS'stole'
p1197
I1240
sS'Jehonadab'
p1198
I1241
sS'prophesied'
p1199
I3811
sS'restitution'
p1200
I1242
sS'inheritance'
p1201
I1243
sS'inclosed'
p1202
I1244
sS'Concerning'
p1203
I678
sS'Who'
p1204
I1246
sS'Zeruiah'
p1205
I1373
sS'1'
p1206
I1248
sS'alway'
p1207
I269
sS'Barak'
p1208
I1250
sS'sword'
p1209
I1251
sS'familiar'
p1210
I3622
sS'pins'
p1211
I1252
sS'sworn'
p1212
I1254
sS'Why'
p1213
I1255
sS'loaves'
p1214
I1257
sS'armies'
p1215
I1258
sS'levy'
p1216
I1259
sS'mar'
p1217
I1260
sS'confess'
p1218
I4091
sS'may'
p1219
I1261
sS'sacrifice'
p1220
I1262
sS'meaneth'
p1221
I2233
sS'eighty'
p1222
I1264
sS'Uri'
p1223
I1265
sS'stripes'
p1224
I3624
sS'unawares'
p1225
I1267
sS'Bethshan'
p1226
I3455
sS'mad'
p1227
I3460
sS'Shunem'
p1228
I1273
sS'such'
p1229
I1274
sS'suck'
p1230
I1275
sS'dove'
p1231
I1276
sS'grow'
p1232
I1277
sS'man'
p1233
I1278
sS'branches'
p1234
I1279
sS'remember'
p1235
I1280
sS'Puah'
p1236
I1281
sS'trumpets'
p1237
I1283
sS'purify'
p1238
I1284
sS'yielding'
p1239
I1285
sS'Gedor'
p1240
I1286
sS'tale'
p1241
I1287
sS'provide'
p1242
I1288
sS'so'
p1243
I1290
sS'deceive'
p1244
I1291
sS'Zanoah'
p1245
I1292
sS'basket'
p1246
I1293
sS'omer'
p1247
I1294
sS'talk'
p1248
I1296
sS'drunken'
p1249
I1297
sS'comfort'
p1250
I2271
sS'Eliab'
p1251
I1300
sS'shield'
p1252
I1301
sS'seeing'
p1253
I2961
sS'indeed'
p1254
I1303
sS'counsellor'
p1255
I1304
sS'garrison'
p1256
I2699
sS'midnight'
p1257
I1305
sS'Paran'
p1258
I1306
sS'years'
p1259
I1307
sS'putteth'
p1260
I1340
sS'Bichri'
p1261
I18
sS'pitch'
p1262
I1310
sS'Zin'
p1263
I1311
sS'anointing'
p1264
I901
sS'still'
p1265
I1313
sS'birds'
p1266
I1314
sS'Kemuel'
p1267
I1315
sS'thumb'
p1268
I1318
sS'gladness'
p1269
I3503
sS'torn'
p1270
I1320
sS'abhorred'
p1271
I1321
sS'hewed'
p1272
I1322
sS'maid'
p1273
I1323
sS'window'
p1274
I1324
sS'testimony'
p1275
I3885
sS'whole'
p1276
I3823
sS'atonement'
p1277
I1326
sS'enquire'
p1278
I1327
sS'troubled'
p1279
I1328
sS'dwellest'
p1280
I1329
sS'Make'
p1281
I903
sS'petition'
p1282
I1331
sS'Azubah'
p1283
I1724
sS'Azmaveth'
p1284
I1334
sS'Ithrite'
p1285
I1336
sS'sight'
p1286
I2914
sS'nation'
p1287
I1337
sS'underneath'
p1288
I1338
sS'touching'
p1289
I1339
sS'course'
p1290
I2905
sS'She'
p1291
I1341
sS'half'
p1292
I1342
sS'not'
p1293
I1343
sS'now'
p1294
I1344
sS'porters'
p1295
I1316
sS'killed'
p1296
I1346
sS'nor'
p1297
I1347
sS'possess'
p1298
I1348
sS'wont'
p1299
I1349
sS'down'
p1300
I908
sS'execute'
p1301
I1351
sS'shouted'
p1302
I1352
sS'name'
p1303
I1353
sS'servant'
p1304
I1354
sS'corners'
p1305
I1355
sS'victuals'
p1306
I3640
sS'arrows'
p1307
I1357
sS'breach'
p1308
I3103
sS'Zohar'
p1309
I1359
sS'carcases'
p1310
I1360
sS'quarter'
p1311
I1361
sS'repaired'
p1312
I1362
sS'Zerah'
p1313
I1363
sS'whosoever'
p1314
I1364
sS'Azekah'
p1315
I1365
sS'Luz'
p1316
I1366
sS'beloved'
p1317
I1367
sS'Shemuel'
p1318
I1368
sS'Except'
p1319
I1369
sS'fighteth'
p1320
I1370
sS'gird'
p1321
I1371
sS'Kishon'
p1322
I1372
sS'befell'
p1323
I1374
sS'year'
p1324
I1375
sS'eatest'
p1325
I1376
sS'giveth'
p1326
I1377
sS'furniture'
p1327
I2864
sS'Save'
p1328
I1378
sS'Deborah'
p1329
I1379
sS'living'
p1330
I1380
sS'Ruth'
p1331
I2970
sS'mouths'
p1332
I230
sS'space'
p1333
I1383
sS'profit'
p1334
I1384
sS'Ithamar'
p1335
I1385
sS'haste'
p1336
I1538
sS'thirst'
p1337
I8
sS'hastily'
p1338
I1387
sS'increase'
p1339
I1388
sS'Wilt'
p1340
I1389
sS'stuff'
p1341
I3646
sS'undersetters'
p1342
I1390
sS'Hittite'
p1343
I1392
sS'Habor'
p1344
I1394
sS'Manasseh'
p1345
I1395
sS'eagle'
p1346
I1396
sS'Mibsam'
p1347
I2287
sS'Rabshakeh'
p1348
I1398
sS'siege'
p1349
I1399
sS'seventh'
p1350
I1400
sS'kids'
p1351
I3420
sS'cart'
p1352
I107
sS'spies'
p1353
I110
sS'Either'
p1354
I128
sS'besides'
p1355
I1404
sS'uncover'
p1356
I2802
sS'spied'
p1357
I1406
sS'remainder'
p1358
I1407
sS'seventy'
p1359
I1408
sS'care'
p1360
I1409
sS'Will'
p1361
I2981
sS'Forasmuch'
p1362
I1411
sS'workmanship'
p1363
I1412
sS'Ammon'
p1364
I1413
sS'language'
p1365
I1414
sS'goest'
p1366
I1415
sS'refuseth'
p1367
I1416
sS'rule'
p1368
I4081
sS'kingdoms'
p1369
I1418
sS'seekest'
p1370
I1419
sS'turn'
p1371
I215
sS'fetters'
p1372
I1422
sS'thine'
p1373
I1423
sS'place'
p1374
I1424
sS'recompense'
p1375
I227
sS'envied'
p1376
I1426
sS'widow'
p1377
I1429
sS'think'
p1378
I1430
sS'waited'
p1379
I252
sS'first'
p1380
I255
sS'Bethlehemite'
p1381
I445
sS'dwelling'
p1382
I273
sS'strengthened'
p1383
I3654
sS'Berechiah'
p1384
I293
sS'Chenaniah'
p1385
I320
sS'Amalek'
p1386
I304
sS'knoweth'
p1387
I1439
sS'one'
p1388
I1440
sS'Machpelah'
p1389
I1441
sS'Sepharvaim'
p1390
I322
sS'consecrate'
p1391
I1443
sS'chide'
p1392
I1587
sS'habitation'
p1393
I1445
sS'carry'
p1394
I1446
sS'array'
p1395
I955
sS'Ashbel'
p1396
I1309
sS'open'
p1397
I1449
sS'size'
p1398
I1451
sS'sheep'
p1399
I1452
sS'city'
p1400
I1453
sS'given'
p1401
I379
sS'wrath'
p1402
I1455
sS'Jezebel'
p1403
I1456
sS'caught'
p1404
I1457
sS'slept'
p1405
I1458
sS'Mamre'
p1406
I3966
sS'households'
p1407
I1459
sS'plains'
p1408
I1460
sS'Levi'
p1409
I1461
sS'2'
p1410
I1462
sS'fiery'
p1411
I1463
sS'begotten'
p1412
I1464
sS'Every'
p1413
I2980
sS'white'
p1414
I1466
sS'Bethshemesh'
p1415
I1467
sS'friend'
p1416
I461
sS'Zidon'
p1417
I1469
sS'snuffers'
p1418
I1470
sS'similitude'
p1419
I1471
sS'eyes'
p1420
I1472
sS'Peleg'
p1421
I1474
sS'that'
p1422
I1475
sS'season'
p1423
I1476
sS'Jair'
p1424
I1477
sS'Ophir'
p1425
I1478
sS'mayest'
p1426
I2131
sS'refuse'
p1427
I2298
sS'Baalzebub'
p1428
I515
sS'remove'
p1429
I4031
sS'Send'
p1430
I3657
sS'girded'
p1431
I539
sS'Rizpah'
p1432
I1483
sS'taketh'
p1433
I1484
sS'cleanse'
p1434
I1485
sS'than'
p1435
I1486
sS'storehouses'
p1436
I1487
sS'11'
p1437
I1488
sS'wide'
p1438
I564
sS'Seven'
p1439
I569
sS'12'
p1440
I1491
sS'15'
p1441
I1492
sS'14'
p1442
I1493
sS'17'
p1443
I1494
sS'Zurishaddai'
p1444
I580
sS'19'
p1445
I1496
sS'18'
p1446
I1497
sS'require'
p1447
I1498
sS'folly'
p1448
I1499
sS'Until'
p1449
I1500
sS'Ahisamach'
p1450
I1642
sS'Ramothgilead'
p1451
I1502
sS'Gershonites'
p1452
I1503
sS'coats'
p1453
I1504
sS'Amasa'
p1454
I1505
sS'knives'
p1455
I1506
sS'cymbals'
p1456
I1508
sS'were'
p1457
I1509
sS'oath'
p1458
I1510
sS'and'
p1459
I1511
sS'lowest'
p1460
I1512
sS'gathering'
p1461
I1513
sS'rend'
p1462
I1514
sS'angel'
p1463
I1515
sS'remained'
p1464
I667
sS'Gehazi'
p1465
I685
sS'lice'
p1466
I1518
sS'jewels'
p1467
I1519
sS'sad'
p1468
I1520
sS'say'
p1469
I1521
sS'conspiracy'
p1470
I1256
sS'Call'
p1471
I1523
sS'rent'
p1472
I714
sS'anger'
p1473
I1525
sS'Achshaph'
p1474
I1526
sS'recover'
p1475
I1527
sS'saw'
p1476
I1528
sS'any'
p1477
I1529
sS'sat'
p1478
I1530
sS'Shaul'
p1479
I1531
sS'prosperity'
p1480
I752
sS'form'
p1481
I1533
sS'aside'
p1482
I1534
sS'instructed'
p1483
I1535
sS'Hermon'
p1484
I1536
sS'take'
p1485
I1537
sS'praised'
p1486
I2215
sS'destroy'
p1487
I826
sS'dread'
p1488
I2304
sS'begin'
p1489
I1542
sS'sure'
p1490
I1543
sS'Jephunneh'
p1491
I1544
sS'GOD'
p1492
I1545
sS'price'
p1493
I1546
sS'knew'
p1494
I1547
sS'Egypt'
p1495
I2569
sS'clovenfooted'
p1496
I88
sS'Jahaziel'
p1497
I1551
sS'Ahimelech'
p1498
I1552
sS'wreathen'
p1499
I1553
sS'Tarry'
p1500
I3493
sS'Glory'
p1501
I2869
sS'hungry'
p1502
I1125
sS'tooth'
p1503
I979
sS'bade'
p1504
I1557
sS'uncircumcised'
p1505
I1558
sS'Ekron'
p1506
I1559
sS'axe'
p1507
I1560
sS'uncle'
p1508
I1561
sS'bondmen'
p1509
I1562
sS'Fill'
p1510
I2312
sS'salt'
p1511
I1564
sS'trembled'
p1512
I1565
sS'laws'
p1513
I1566
sS'walking'
p1514
I1568
sS'Ashdod'
p1515
I1569
sS'shot'
p1516
I1570
sS'Japhlet'
p1517
I1571
sS'rereward'
p1518
I1572
sS'fifty'
p1519
I1573
sS'discovered'
p1520
I1574
sS'trespass'
p1521
I1087
sS'bright'
p1522
I1576
sS'executed'
p1523
I1577
sS'Gath'
p1524
I1578
sS'shoe'
p1525
I1579
sS'threshold'
p1526
I1580
sS'corner'
p1527
I1581
sS'Ephrath'
p1528
I1582
sS'fifth'
p1529
I1583
sS'ground'
p1530
I1584
sS'righteous'
p1531
I697
sS'We'
p1532
I1586
sS'wilt'
p1533
I3756
sS'Ramah'
p1534
I1588
sS'destruction'
p1535
I3817
sS'proclamation'
p1536
I1159
sS'treasure'
p1537
I1590
sS'saints'
p1538
I1591
sS'3'
p1539
I1592
sS'Ephron'
p1540
I1593
sS'woof'
p1541
I1594
sS'only'
p1542
I1595
sS'going'
p1543
I1193
sS'black'
p1544
I1597
sS'Kirjathaim'
p1545
I4058
sS'consent'
p1546
I1598
sS'robe'
p1547
I1600
sS'fifties'
p1548
I3672
sS'lighted'
p1549
I1601
sS'Tappuah'
p1550
I1234
sS'rejoiced'
p1551
I1603
sS'Michah'
p1552
I1604
sS'get'
p1553
I1605
sS'Pelethites'
p1554
I1606
sS'between'
p1555
I1659
sS'truly'
p1556
I1609
sS'cursing'
p1557
I1610
sS'Turn'
p1558
I1282
sS'Gershonite'
p1559
I1612
sS'Rahab'
p1560
I1613
sS'bracelets'
p1561
I1614
sS'Rehoboth'
p1562
I1615
sS'savoury'
p1563
I1616
sS'Jehoram'
p1564
I795
sS'neither'
p1565
I3675
sS'firstborn'
p1566
I1619
sS'Ulam'
p1567
I1620
sS'beseech'
p1568
I1621
sS'lame'
p1569
I3313
sS'Angel'
p1570
I1622
sS'setteth'
p1571
I3917
sS'censer'
p1572
I288
sS'yield'
p1573
I1624
sS'breeches'
p1574
I1356
sS'naked'
p1575
I1626
sS'priest'
p1576
I1627
sS'Verily'
p1577
I1628
sS'girdles'
p1578
I1405
sS'bought'
p1579
I3677
sS'where'
p1580
I1631
sS'vision'
p1581
I1425
sS'declared'
p1582
I1633
sS'Urim'
p1583
I1634
sS'Meshech'
p1584
I1635
sS'seas'
p1585
I1637
sS'signs'
p1586
I2326
sS'eighteenth'
p1587
I1639
sS'seat'
p1588
I2063
sS'famine'
p1589
I1641
sS'namely'
p1590
I1501
sS'us'
p1591
I3007
sS'Malchishua'
p1592
I1644
sS'hastened'
p1593
I1645
sS'sport'
p1594
I1646
sS'Babylon'
p1595
I1647
sS'Tola'
p1596
I1648
sS'wonder'
p1597
I1649
sS'judgment'
p1598
I3814
sS'Medeba'
p1599
I1650
sS'That'
p1600
I1651
sS'ways'
p1601
I1652
sS'Hereby'
p1602
I1653
sS'colours'
p1603
I1585
sS'fierceness'
p1604
I1656
sS'outside'
p1605
I1332
sS'Molech'
p1606
I1658
sS'refreshed'
p1607
I1608
sS'Heber'
p1608
I1660
sS'dreamer'
p1609
I1661
sS'sorrow'
p1610
I3684
sS'forsake'
p1611
I1663
sS'multiplied'
p1612
I1636
sS'27'
p1613
I2332
sS'pluck'
p1614
I1665
sS'countenance'
p1615
I1666
sS'Helez'
p1616
I1667
sS'spare'
p1617
I1668
sS'Chaldees'
p1618
I1669
sS'singers'
p1619
I1670
sS'March'
p1620
I1671
sS'cities'
p1621
I1672
sS'come'
p1622
I1673
sS'grieved'
p1623
I1674
sS'thanksgiving'
p1624
I3584
sS'21'
p1625
I2334
sS'cleave'
p1626
I1675
sS'Arnon'
p1627
I1676
sS'22'
p1628
I2335
sS'Eliphaz'
p1629
I1678
sS'Give'
p1630
I1679
sS'many'
p1631
I1680
sS'pertain'
p1632
I1681
sS'priests'
p1633
I1682
sS'according'
p1634
I1683
sS'officer'
p1635
I1685
sS'candlestick'
p1636
I1686
sS'Ammiel'
p1637
I1688
sS'wheels'
p1638
I1689
sS'abominations'
p1639
I1690
sS'duty'
p1640
I1691
sS'among'
p1641
I1692
sS'Korhites'
p1642
I1693
sS'afterwards'
p1643
I1694
sS'Nebo'
p1644
I1695
sS'bricks'
p1645
I1696
sS'mightest'
p1646
I2347
sS'pot'
p1647
I1697
sS','
p1648
I289
sS'slain'
p1649
I1699
sS'Zarhites'
p1650
I1226
sS'smitten'
p1651
I3049
sS'moreover'
p1652
I1701
sS'writing'
p1653
I1702
sS'beforetime'
p1654
I1888
sS'precious'
p1655
I3691
sS'beareth'
p1656
I1705
sS'better'
p1657
I1706
sS'Mahlah'
p1658
I1707
sS'Heshbon'
p1659
I1921
sS'Uzziah'
p1660
I1709
sS'stretch'
p1661
I1710
sS'west'
p1662
I1711
sS'But'
p1663
I1713
sS'mark'
p1664
I1714
sS'breath'
p1665
I1715
sS'spoons'
p1666
I1716
sS'punished'
p1667
I1717
sS'thumbs'
p1668
I2272
sS'likewise'
p1669
I3022
sS'Sidonians'
p1670
I1719
sS'borders'
p1671
I1720
sS'covering'
p1672
I3386
sS'Zebul'
p1673
I1721
sS'fiftieth'
p1674
I1722
sS'thousand'
p1675
I1725
sS'formed'
p1676
I1726
sS'erred'
p1677
I1727
sS'Hast'
p1678
I2348
sS'fruits'
p1679
I1728
sS'Haran'
p1680
I1729
sS'midwives'
p1681
I1730
sS'Jetur'
p1682
I1731
sS'Simeonites'
p1683
I1732
sS'spirit'
p1684
I1733
sS'captivity'
p1685
I958
sS'sound'
p1686
I493
sS'shaft'
p1687
I1736
sS'myself'
p1688
I1737
sS'bullocks'
p1689
I1738
sS'turtles'
p1690
I1740
sS'scarlet'
p1691
I3024
sS'these'
p1692
I1742
sS'might'
p1693
I2350
sS'mount'
p1694
I1744
sS'polls'
p1695
I1745
sS'thigh'
p1696
I3328
sS'stronger'
p1697
I3583
sS'cast'
p1698
I1747
sS'Ahiman'
p1699
I1748
sS'Beriah'
p1700
I1749
sS'freely'
p1701
I3696
sS'doest'
p1702
I3027
sS'cherub'
p1703
I1752
sS'region'
p1704
I1753
sS'bathe'
p1705
I1755
sS'childless'
p1706
I3451
sS'coupled'
p1707
I163
sS'Shubael'
p1708
I541
sS'ephah'
p1709
I1758
sS'leavened'
p1710
I1759
sS'dedicate'
p1711
I1760
sS'middle'
p1712
I1762
sS'good'
p1713
I2355
sS'pertaineth'
p1714
I1764
sS'commanded'
p1715
I1765
sS'Attai'
p1716
I3016
sS'wisely'
p1717
I1767
sS'fame'
p1718
I1768
sS'mercies'
p1719
I1769
sS'selleth'
p1720
I558
sS'pay'
p1721
I1771
sS'freewill'
p1722
I1772
sS'Baanah'
p1723
I1773
sS'bowl'
p1724
I1774
sS'Jeshurun'
p1725
I387
sS'Ahiah'
p1726
I1776
sS'wizards'
p1727
I1777
sS'bowels'
p1728
I1550
sS'Maachathites'
p1729
I1779
sS'Chimham'
p1730
I1780
sS'liers'
p1731
I874
sS'pan'
p1732
I1782
sS'Zichri'
p1733
I308
sS'booths'
p1734
I1785
sS'Archite'
p1735
I504
sS'I'
p1736
I1787
sS'ye'
p1737
I1788
sS'defy'
p1738
I1789
sS'companion'
p1739
I1791
sS'driven'
p1740
I1792
sS'persons'
p1741
I1793
sS'fowls'
p1742
I1794
sS'firstlings'
p1743
I1795
sS'arose'
p1744
I1797
sS'weep'
p1745
I1798
sS'Bethuel'
p1746
I1799
sS'swallow'
p1747
I3704
sS'vowed'
p1748
I1801
sS'Abigail'
p1749
I1802
sS'bondage'
p1750
I1803
sS'flocks'
p1751
I1804
sS'sinned'
p1752
I1805
sS'Is'
p1753
I1806
sS'floor'
p1754
I1807
sS'Tahpenes'
p1755
I1133
sS'It'
p1756
I1809
sS'May'
p1757
I2968
sS'without'
p1758
I1811
sS'bottle'
p1759
I1812
sS'In'
p1760
I1813
sS'very'
p1761
I2103
sS'strive'
p1762
I3863
sS'reward'
p1763
I1814
sS'whereas'
p1764
I1815
sS'bodies'
p1765
I1816
sS'Nebat'
p1766
I906
sS'heaps'
p1767
I1818
sS'gates'
p1768
I344
sS'desolate'
p1769
I1820
sS'being'
p1770
I1821
sS'money'
p1771
I1822
sS'armour'
p1772
I1823
sS'rest'
p1773
I1824
sS'stiffnecked'
p1774
I1825
sS'foot'
p1775
I2366
sS'cease'
p1776
I1827
sS'So'
p1777
I2232
sS'touch'
p1778
I1828
sS'speed'
p1779
I1829
sS'blow'
p1780
I1830
sS'death'
p1781
I1831
sS'dipped'
p1782
I1832
sS'rose'
p1783
I1833
sS'except'
p1784
I1834
sS'Laish'
p1785
I1835
sS'venison'
p1786
I1836
sS'Hushim'
p1787
I1837
sS'4'
p1788
I1838
sS'overthrow'
p1789
I1839
sS'struck'
p1790
I1840
sS'Shephatiah'
p1791
I1473
sS'kingdom'
p1792
I1842
sS'Kenezite'
p1793
I1843
sS'Izhar'
p1794
I3173
sS'read'
p1795
I1844
sS'ruler'
p1796
I1845
sS'Amasai'
p1797
I1846
sS'early'
p1798
I1847
sS'Solomon'
p1799
I1848
sS'Hadarezer'
p1800
I2370
sS'world'
p1801
I2847
sS'snare'
p1802
I1851
sS'accepted'
p1803
I1852
sS'reap'
p1804
I1853
sS'rear'
p1805
I1854
sS'meat'
p1806
I318
sS'Bashemath'
p1807
I3715
sS'thirteenth'
p1808
I2394
sS'How'
p1809
I3755
sS'Nazarite'
p1810
I1856
sS'stranger'
p1811
I1857
sS'yearly'
p1812
I1858
sS'chamber'
p1813
I1859
sS'audience'
p1814
I1860
sS'either'
p1815
I1861
sS'always'
p1816
I2372
sS'Notwithstanding'
p1817
I1863
sS'served'
p1818
I1864
sS'tower'
p1819
I1865
sS'stretched'
p1820
I1700
sS'fulfil'
p1821
I1867
sS'twelve'
p1822
I1868
sS'sack'
p1823
I3467
sS'burdens'
p1824
I1870
sS'Lot'
p1825
I3719
sS'afflict'
p1826
I1872
sS'servile'
p1827
I1873
sS'pronounce'
p1828
I1874
sS'Reuben'
p1829
I1875
sS'Israelitish'
p1830
I1876
sS'Besor'
p1831
I1877
sS'Whatsoever'
p1832
I1878
sS'Etam'
p1833
I2053
sS'images'
p1834
I1880
sS'pasture'
p1835
I1881
sS'Abijam'
p1836
I487
sS'saidst'
p1837
I1883
sS'provided'
p1838
I1850
sS'bones'
p1839
I3282
sS'perverse'
p1840
I1885
sS'sling'
p1841
I1886
sS'courses'
p1842
I1887
sS'noon'
p1843
I1889
sS'besiege'
p1844
I1134
sS'Pharaoh'
p1845
I1891
sS'moon'
p1846
I1892
sS'Geshurites'
p1847
I1893
sS'Adonibezek'
p1848
I3574
sS'Hebronites'
p1849
I1895
sS'recorder'
p1850
I1896
sS'Shunammite'
p1851
I1897
sS'Jebusite'
p1852
I1898
sS'porter'
p1853
I1783
sS'severed'
p1854
I1900
sS'Chapter'
p1855
I1901
sS'thereunto'
p1856
I1902
sS'wheat'
p1857
I1903
sS'arrow'
p1858
I1904
sS'Nebuchadnezzar'
p1859
I86
sS'quit'
p1860
I3723
sS'Raamah'
p1861
I1907
sS'sixth'
p1862
I1908
sS'sprung'
p1863
I1909
sS'slaughter'
p1864
I1910
sS'breasts'
p1865
I3052
sS'broken'
p1866
I1912
sS'Rock'
p1867
I1913
sS'sixty'
p1868
I1914
sS'walkest'
p1869
I1915
sS'prepared'
p1870
I3053
sS'Assuredly'
p1871
I43
sS'on'
p1872
I1918
sS'stone'
p1873
I1919
sS'subdued'
p1874
I1920
sS'Cast'
p1875
I3054
sS'Eliasaph'
p1876
I1790
sS'violence'
p1877
I1926
sS'Hilkiah'
p1878
I1927
sS'Baalzephon'
p1879
I1928
sS'meal'
p1880
I1929
sS'whence'
p1881
I1930
sS'fell'
p1882
I1931
sS'stand'
p1883
I1932
sS'ox'
p1884
I1933
sS'stank'
p1885
I1934
sS'bond'
p1886
I1935
sS'or'
p1887
I1936
sS'brook'
p1888
I3712
sS'tribe'
p1889
I1937
sS'lands'
p1890
I1938
sS'dagger'
p1891
I1939
sS'Abidan'
p1892
I3342
sS'burning'
p1893
I1941
sS'No'
p1894
I1942
sS'instruments'
p1895
I1943
sS'image'
p1896
I1944
sS'blessed'
p1897
I1946
sS'cursed'
p1898
I1948
sS'earring'
p1899
I1949
sS'rising'
p1900
I1950
sS'Zerahiah'
p1901
I3730
sS'verily'
p1902
I1951
sS'Ishi'
p1903
I520
sS'firepans'
p1904
I1953
sS'Jamin'
p1905
I1954
sS'hew'
p1906
I1955
sS'log'
p1907
I1956
sS'her'
p1908
I1957
sS'Though'
p1909
I1958
sS'glean'
p1910
I1959
sS'there'
p1911
I1960
sS'Shelah'
p1912
I1962
sS'poured'
p1913
I1963
sS'lions'
p1914
I1964
sS'low'
p1915
I1965
sS'stars'
p1916
I1966
sS'house'
p1917
I2392
sS'hem'
p1918
I1968
sS'valley'
p1919
I1969
sS'fish'
p1920
I2393
sS'Shimea'
p1921
I80
sS'Hosah'
p1922
I234
sS'Remember'
p1923
I1974
sS'enough'
p1924
I1975
sS'Shimei'
p1925
I940
sS'pitcher'
p1926
I1977
sS'Nebuzaradan'
p1927
I1978
sS'Zechariah'
p1928
I1979
sS'heardest'
p1929
I1980
sS'sendest'
p1930
I1981
sS'Jahath'
p1931
I1982
sS'pitched'
p1932
I1983
sS'promote'
p1933
I1984
sS'with'
p1934
I1985
sS'cords'
p1935
I1986
sS'Even'
p1936
I1433
sS'hire'
p1937
I1987
sS'rage'
p1938
I1988
sS'Boaz'
p1939
I1989
sS'Uzzi'
p1940
I1990
sS'Joseph'
p1941
I2397
sS'Serug'
p1942
I1991
sS'kinsman'
p1943
I1992
sS'Askelon'
p1944
I3518
sS'Uzza'
p1945
I1993
sS'tens'
p1946
I1611
sS'builders'
p1947
I1995
sS'creeping'
p1948
I1996
sS'castles'
p1949
I1998
sS'gone'
p1950
I1999
sS'required'
p1951
I3069
sS'oxen'
p1952
I2001
sS'Baalperazim'
p1953
I2002
sS'doings'
p1954
I2003
sS'Judah'
p1955
I2004
sS'fourscore'
p1956
I1448
sS'certain'
p1957
I2006
sS'describe'
p1958
I2007
sS'am'
p1959
I2008
sS'Abihu'
p1960
I3535
sS'deep'
p1961
I2010
sS'fellow'
p1962
I2011
sS'navy'
p1963
I1233
sS'as'
p1964
I2013
sS'Shimron'
p1965
I2014
sS'Hor'
p1966
I2015
sS'daily'
p1967
I1589
sS'midwife'
p1968
I2017
sS'sheath'
p1969
I2018
sS'deed'
p1970
I2019
sS'divination'
p1971
I2020
sS'fill'
p1972
I2022
sS'again'
p1973
I2023
sS'beyond'
p1974
I2400
sS'heave'
p1975
I2401
sS'Jedaiah'
p1976
I2026
sS'repent'
p1977
I2027
sS'thither'
p1978
I2028
sS'field'
p1979
I2029
sS'fasted'
p1980
I2940
sS'5'
p1981
I2031
sS'Lay'
p1982
I2032
sS'overcome'
p1983
I2033
sS'you'
p1984
I2034
sS'dismayed'
p1985
I2036
sS'offered'
p1986
I2037
sS'poor'
p1987
I2038
sS'requested'
p1988
I2039
sS'blessing'
p1989
I2040
sS'Israelites'
p1990
I2041
sS'Rephaiah'
p1991
I2042
sS'separate'
p1992
I2043
sS'spoilers'
p1993
I2044
sS'desolation'
p1994
I2045
sS'teeth'
p1995
I2046
sS'gifts'
p1996
I2047
sS'herbs'
p1997
I2048
sS'peradventure'
p1998
I2049
sS'Bahurim'
p1999
I2050
sS'brass'
p2000
I2052
sS'captives'
p2001
I3999
sS'pool'
p2002
I2054
sS'humbled'
p2003
I3834
sS'building'
p2004
I2056
sS'mourned'
p2005
I2057
sS'Thou'
p2006
I2871
sS'wife'
p2007
I2058
sS'finished'
p2008
I3746
sS'Gilgal'
p2009
I451
sS'openeth'
p2010
I2921
sS'observe'
p2011
I2064
sS'drank'
p2012
I3732
sS'apparel'
p2013
I2065
sS'Eliakim'
p2014
I2066
sS'craftsmen'
p2015
I2067
sS'concubine'
p2016
I2068
sS'all'
p2017
I2069
sS'Samuel'
p2018
I2070
sS'lace'
p2019
I14
sS'vile'
p2020
I2072
sS'Stretch'
p2021
I2073
sS'Achzib'
p2022
I206
sS'beware'
p2023
I2075
sS'tarry'
p2024
I29
sS'none'
p2025
I2242
sS'month'
p2026
I2077
sS'ceased'
p2027
I2078
sS'Take'
p2028
I2079
sS'welfare'
p2029
I2081
sS'follow'
p2030
I2082
sS'Moses'
p2031
I2083
sS'children'
p2032
I2085
sS'causes'
p2033
I2086
sS'content'
p2034
I2087
sS'encourage'
p2035
I2089
sS'former'
p2036
I2090
sS'to'
p2037
I2091
sS'tail'
p2038
I2092
sS'Hoglah'
p2039
I151
sS'those'
p2040
I1734
sS'Israel'
p2041
I2288
sS'fountain'
p2042
I2410
sS'Eat'
p2043
I2096
sS'speaketh'
p2044
I2097
sS'case'
p2045
I1735
sS'belonging'
p2046
I2099
sS'woman'
p2047
I2100
sS'worse'
p2048
I211
sS'sitting'
p2049
I218
sS'far'
p2050
I219
sS'robes'
p2051
I2104
sS'saved'
p2052
I2062
sS'eldest'
p2053
I2106
sS'Abiah'
p2054
I243
sS'overlay'
p2055
I3913
sS'sons'
p2056
I2108
sS'trustest'
p2057
I2109
sS'fall'
p2058
I2110
sS'soles'
p2059
I674
sS'fourth'
p2060
I3368
sS'Joshua'
p2061
I2112
sS'heaven'
p2062
I2114
sS'profane'
p2063
I2115
sS'Noah'
p2064
I2116
sS'heaved'
p2065
I2117
sS'sanctify'
p2066
I2118
sS'joined'
p2067
I2119
sS'trench'
p2068
I352
sS'sang'
p2069
I2121
sS'sand'
p2070
I2122
sS'highway'
p2071
I2417
sS'threshing'
p2072
I377
sS'small'
p2073
I2125
sS'buryingplace'
p2074
I2127
sS'withheld'
p2075
I2129
sS'ten'
p2076
I2130
sS'Should'
p2077
I1205
sS'past'
p2078
I2132
sS'Only'
p2079
I2133
sS'honourable'
p2080
I2134
sS'pass'
p2081
I2135
sS'further'
p2082
I2137
sS'returned'
p2083
I2101
sS'Milcom'
p2084
I2139
sS'will'
p2085
I3762
sS'Amnon'
p2086
I691
sS'stood'
p2087
I2142
sS'darkness'
p2088
I2143
sS'abundantly'
p2089
I2908
sS'sun'
p2090
I2144
sS'sum'
p2091
I2145
sS'Japheth'
p2092
I2146
sS'Jeiel'
p2093
I2147
sS'milk'
p2094
I2148
sS'witnesses'
p2095
I2149
sS'prevailed'
p2096
I2150
sS'Beeroth'
p2097
I2151
sS'Jezreel'
p2098
I2153
sS'tribute'
p2099
I573
sS'everlasting'
p2100
I2155
sS'cruse'
p2101
I2157
sS'multitude'
p2102
I2158
sS'womb'
p2103
I2159
sS'Rabbah'
p2104
I2160
sS'toes'
p2105
I599
sS'Amon'
p2106
I2162
sS'reacheth'
p2107
I2163
sS'loose'
p2108
I2164
sS'vale'
p2109
I2165
sS'falleth'
p2110
I2166
sS'ranges'
p2111
I2167
sS'Amoz'
p2112
I641
sS'Elimelech'
p2113
I2169
sS'hast'
p2114
I2170
sS'Ebal'
p2115
I2171
sS'standard'
p2116
I1021
sS'table'
p2117
I2173
sS'search'
p2118
I2174
sS'Hazeroth'
p2119
I2175
sS'consecrations'
p2120
I2176
sS'Jews'
p2121
I2177
sS'heifer'
p2122
I2178
sS'enmity'
p2123
I2179
sS'Naboth'
p2124
I3770
sS'Reuel'
p2125
I2181
sS'Maon'
p2126
I2182
sS'through'
p2127
I2323
sS'Joab'
p2128
I2183
sS'drawers'
p2129
I2184
sS'Enos'
p2130
I2430
sS'handful'
p2131
I3680
sS'Naomi'
p2132
I762
sS'Joah'
p2133
I2188
sS'narrow'
p2134
I2189
sS'laver'
p2135
I2190
sS'Mephaath'
p2136
I3772
sS'forasmuch'
p2137
I2192
sS'followed'
p2138
I800
sS'ours'
p2139
I3748
sS'family'
p2140
I2194
sS'plain'
p2141
I3757
sS'suddenly'
p2142
I2195
sS'marriages'
p2143
I825
sS'Baalgad'
p2144
I2198
sS'virgins'
p2145
I836
sS'Toi'
p2146
I2200
sS'send'
p2147
I3098
sS'Jattir'
p2148
I1317
sS'seventeenth'
p2149
I863
sS'Ammihud'
p2150
I2206
sS'eye'
p2151
I2207
sS'proceed'
p2152
I2208
sS'ephod'
p2153
I2209
sS'beginning'
p2154
I2435
sS'transgressions'
p2155
I1756
sS'two'
p2156
I2212
sS'goeth'
p2157
I2214
sS'watchmen'
p2158
I1971
sS'puttest'
p2159
I2216
sS'6'
p2160
I2217
sS'taken'
p2161
I2218
sS'Athaliah'
p2162
I2219
sS'Dedan'
p2163
I1841
sS'more'
p2164
I2220
sS'horses'
p2165
I1358
sS'flat'
p2166
I968
sS'strait'
p2167
I2223
sS'door'
p2168
I2224
sS'Fear'
p2169
I3890
sS'passest'
p2170
I2225
sS'strange'
p2171
I3796
sS'company'
p2172
I1450
sS'flax'
p2173
I2227
sS'Bless'
p2174
I2228
sS'Ibleam'
p2175
I2229
sS'Zillah'
p2176
I2230
sS'pursuers'
p2177
I1029
sS'Gershom'
p2178
I1033
sS'Gershon'
p2179
I2234
sS'Johanan'
p2180
I1042
sS'foundations'
p2181
I2236
sS'nineteen'
p2182
I2237
sS'glad'
p2183
I2238
sS'cunning'
p2184
I2239
sS'wrestled'
p2185
I2240
sS'weighed'
p2186
I3778
sS'keeping'
p2187
I1073
sS'dew'
p2188
I2243
sS'offended'
p2189
I2244
sS'remain'
p2190
I917
sS'nine'
p2191
I2246
sS'learn'
p2192
I1137
sS'male'
p2193
I2248
sS'lighter'
p2194
I2249
sS'tabernacles'
p2195
I1063
sS'beautiful'
p2196
I2251
sS'stubborn'
p2197
I2252
sS'ready'
p2198
I2786
sS'Samaria'
p2199
I2253
sS'brown'
p2200
I1069
sS'lives'
p2201
I4088
sS'Ithran'
p2202
I2254
sS'scab'
p2203
I2255
sS'accept'
p2204
I2256
sS'And'
p2205
I3751
sS'purchased'
p2206
I2258
sS'arise'
p2207
I2259
sS'sharp'
p2208
I1238
sS'habitations'
p2209
I2261
sS'dress'
p2210
I2262
sS'sunrising'
p2211
I1247
sS'charged'
p2212
I2581
sS'!'
p2213
I2265
sS'needs'
p2214
I2266
sS'court'
p2215
I2267
sS'Zipporah'
p2216
I2268
sS'rather'
p2217
I680
sS'Mahli'
p2218
I2270
sS'breaking'
p2219
I1299
sS'ledges'
p2220
I2035
sS'enlarge'
p2221
I2273
sS'stayed'
p2222
I2274
sS'cleansing'
p2223
I2275
sS'wax'
p2224
I2276
sS'Jezreelitess'
p2225
I2277
sS'fed'
p2226
I3225
sS'goat'
p2227
I2278
sS'Ishmael'
p2228
I2279
sS'creature'
p2229
I2280
sS'waved'
p2230
I2281
sS'sprinkle'
p2231
I689
sS'Jeduthun'
p2232
I2283
sS'anoint'
p2233
I2284
sS'Peor'
p2234
I2285
sS'advice'
p2235
I2286
sS'pertained'
p2236
I1397
sS'smiting'
p2237
I841
sS'Ataroth'
p2238
I2289
sS'Ahaziah'
p2239
I2290
sS'strove'
p2240
I3336
sS'blood'
p2241
I2291
sS'coming'
p2242
I2292
sS'Dor'
p2243
I2293
sS'Syria'
p2244
I2294
sS'proclaimed'
p2245
I2295
sS'Heth'
p2246
I3789
sS'a'
p2247
I2296
sS'Nethaniah'
p2248
I2297
sS'straitness'
p2249
I1479
sS'morter'
p2250
I2299
sS'following'
p2251
I3637
sS'coat'
p2252
I2300
sS'Assyria'
p2253
I2301
sS'caul'
p2254
I2302
sS'shore'
p2255
I2303
sS'skilful'
p2256
I1541
sS'Arba'
p2257
I2305
sS'Hebrew'
p2258
I2306
sS'banks'
p2259
I1548
sS'pleasure'
p2260
I2308
sS'dream'
p2261
I2309
sS'playing'
p2262
I2310
sS'Zachariah'
p2263
I2311
sS'grasshoppers'
p2264
I1563
sS'pans'
p2265
I2313
sS'What'
p2266
I2315
sS'passages'
p2267
I2316
sS'help'
p2268
I2317
sS'Levites'
p2269
I405
sS'flowers'
p2270
I2319
sS'soon'
p2271
I2320
sS'offerings'
p2272
I3880
sS'Eleazar'
p2273
I1617
sS'held'
p2274
I2322
sS'dough'
p2275
I1629
sS'same'
p2276
I1775
sS'brim'
p2277
I2325
sS'committed'
p2278
I1638
sS'suffer'
p2279
I2327
sS'bringeth'
p2280
I1654
sS'Benjamin'
p2281
I1664
sS'25'
p2282
I2330
sS'26'
p2283
I2331
sS'blast'
p2284
I1080
sS'Delilah'
p2285
I1266
sS'render'
p2286
I1549
sS'possessions'
p2287
I1677
sS'23'
p2288
I2336
sS'pray'
p2289
I2337
sS'inward'
p2290
I1687
sS'border'
p2291
I3541
sS'labours'
p2292
I2339
sS'28'
p2293
I2340
sS'29'
p2294
I1698
sS'fruitful'
p2295
I2342
sS'Ashdothpisgah'
p2296
I2343
sS'parts'
p2297
I2344
sS'threescore'
p2298
I2345
sS'Carmi'
p2299
I2346
sS'Jabin'
p2300
I2059
sS'altars'
p2301
I2136
sS'speech'
p2302
I1778
sS'cherubims'
p2303
I3123
sS'sheaves'
p2304
I1743
sS'Meshullam'
p2305
I2351
sS'forbear'
p2306
I2352
sS'Cherethites'
p2307
I2353
sS'evening'
p2308
I1763
sS'return'
p2309
I2356
sS'food'
p2310
I2357
sS'males'
p2311
I2358
sS'Michael'
p2312
I1754
sS'Abelmeholah'
p2313
I2360
sS'obedient'
p2314
I2361
sS'obeyed'
p2315
I2362
sS'walls'
p2316
I2363
sS'rank'
p2317
I872
sS'Chenaanah'
p2318
I2365
sS'idols'
p2319
I1826
sS'Maharai'
p2320
I2367
sS'Ziba'
p2321
I2368
sS'Midianitish'
p2322
I2369
sS'Ahikam'
p2323
I1849
sS'likeness'
p2324
I2371
sS'fully'
p2325
I1862
sS'Ram'
p2326
I1869
sS'whithersoever'
p2327
I2374
sS'bless'
p2328
I2375
sS'excellency'
p2329
I846
sS'token'
p2330
I2377
sS'stopped'
p2331
I2378
sS'shekels'
p2332
I2379
sS'Arise'
p2333
I2380
sS'well'
p2334
I3826
sS'found'
p2335
I2381
sS'Abel'
p2336
I2382
sS'marry'
p2337
I3126
sS'Timnah'
p2338
I2384
sS'heavy'
p2339
I2385
sS'covenant'
p2340
I3801
sS'harm'
p2341
I2387
sS'another'
p2342
I2389
sS'weight'
p2343
I2390
sS'generation'
p2344
I2391
sS'nakedness'
p2345
I1967
sS'circumcised'
p2346
I1970
sS'hard'
p2347
I1972
sS'oppressed'
p2348
I2395
sS'Tishbite'
p2349
I2396
sS'oil'
p2350
I1784
sS'Build'
p2351
I2398
sS'loops'
p2352
I2399
sS'hart'
p2353
I2024
sS'scribe'
p2354
I2025
sS'harp'
p2355
I2402
sS'flower'
p2356
I2403
sS'missed'
p2357
I2055
sS'sickness'
p2358
I1786
sS'dwelled'
p2359
I2698
sS'testify'
p2360
I2406
sS'publish'
p2361
I2407
sS'Anah'
p2362
I3816
sS'howsoever'
p2363
I2408
sS'Dibon'
p2364
I2093
sS'safety'
p2365
I2095
sS'hearken'
p2366
I2411
sS'avenge'
p2367
I2138
sS'plant'
p2368
I2282
sS'Adiel'
p2369
I2413
sS'Eliezer'
p2370
I2414
sS'issue'
p2371
I2415
sS'nest'
p2372
I2416
sS'salute'
p2373
I2123
sS'humble'
p2374
I2418
sS'ass'
p2375
I2419
sS'None'
p2376
I2420
sS'bald'
p2377
I3186
sS'risen'
p2378
I2422
sS'upon'
p2379
I3806
sS'ouches'
p2380
I2424
sS'dung'
p2381
I2425
sS'According'
p2382
I9
sS'forgive'
p2383
I2426
sS'pleasant'
p2384
I2427
sS'houses'
p2385
I2428
sS'reason'
p2386
I2429
sS'base'
p2387
I2185
sS'iniquities'
p2388
I2431
sS'murmur'
p2389
I2432
sS'ask'
p2390
I2199
sS'teach'
p2391
I2434
sS'reproach'
p2392
I2210
sS'Baalah'
p2393
I2213
sS'thrown'
p2394
I2437
sS'Midian'
p2395
I1796
sS'reared'
p2396
I2231
sS'betrothed'
p2397
I2440
sS'thread'
p2398
I2441
sS'frankincense'
p2399
I2442
sS'dip'
p2400
I1099
sS'terrible'
p2401
I2444
sS'doeth'
p2402
I2446
sS'tributaries'
p2403
I2447
sS'edges'
p2404
I1961
sS'aileth'
p2405
I2476
sS'Elon'
p2406
I2451
sS'embraced'
p2407
I2466
sS'fallen'
p2408
I2452
sS'Er'
p2409
I2453
sS'feed'
p2410
I2454
sS'Eliel'
p2411
I2456
sS'feel'
p2412
I2458
sS'Salcah'
p2413
I2459
sS'Zobah'
p2414
I508
sS'number'
p2415
I2461
sS'Eleasah'
p2416
I1997
sS'elder'
p2417
I2463
sS'murmured'
p2418
I2464
sS'done'
p2419
I2465
sS'Ethan'
p2420
I1046
sS'Etham'
p2421
I2467
sS'wages'
p2422
I2468
sS'Sinai'
p2423
I2469
sS'pledge'
p2424
I3139
sS'razor'
p2425
I2471
sS'horse'
p2426
I2472
sS'peaceable'
p2427
I2473
sS'heads'
p2428
I2474
sS'Jeremiah'
p2429
I2475
sS'twenty'
p2430
I2450
sS'coasts'
p2431
I2477
sS'entreated'
p2432
I2478
sS'least'
p2433
I2479
sS'hallowed'
p2434
I2480
sS'swarm'
p2435
I2481
sS'Sihon'
p2436
I2483
sS'passed'
p2437
I2484
sS'reverence'
p2438
I2963
sS'sware'
p2439
I2485
sS'hundred'
p2440
I2486
sS'store'
p2441
I2487
sS'temptations'
p2442
I1107
sS'bowed'
p2443
I2489
sS'sackcloth'
p2444
I3142
sS'travail'
p2445
I2490
sS'behind'
p2446
I1657
sS'censers'
p2447
I2491
sS'appeareth'
p2448
I2493
sS'part'
p2449
I2494
sS'thirtieth'
p2450
I2495
sS'Reu'
p2451
I1108
sS'grace'
p2452
I2498
sS'king'
p2453
I2500
sS'kind'
p2454
I2501
sS'grew'
p2455
I2502
sS'kindly'
p2456
I2503
sS'Shechem'
p2457
I2504
sS'bag'
p2458
I1507
sS'Ziklag'
p2459
I2506
sS'gotten'
p2460
I2507
sS'invaded'
p2461
I2508
sS'Eziongaber'
p2462
I2509
sS'Nun'
p2463
I1739
sS'nineteenth'
p2464
I2080
sS'cost'
p2465
I2388
sS'contrary'
p2466
I2513
sS'Shiloh'
p2467
I2514
sS'charger'
p2468
I2515
sS'Azareel'
p2469
I2516
sS'peaceably'
p2470
I2488
sS'displease'
p2471
I2318
sS'Manoah'
p2472
I2519
sS'strengthen'
p2473
I205
sS'Ephrathite'
p2474
I1808
sS'Peace'
p2475
I2522
sS'fillets'
p2476
I2523
sS'roughly'
p2477
I2524
sS'Baal'
p2478
I2526
sS'Zered'
p2479
I2527
sS'Ezer'
p2480
I2528
sS'basons'
p2481
I3721
sS'sell'
p2482
I2529
sS'mountain'
p2483
I2530
sS'nights'
p2484
I2531
sS'built'
p2485
I2532
sS'dancing'
p2486
I2533
sS'Hannah'
p2487
I2534
sS'Kenaz'
p2488
I2535
sS'cave'
p2489
I2536
sS'officers'
p2490
I2537
sS'Kirjatharba'
p2491
I2538
sS'also'
p2492
I2539
sS'Galilee'
p2493
I2540
sS'labour'
p2494
I2541
sS'build'
p2495
I2542
sS'Arad'
p2496
I2543
sS'command'
p2497
I3832
sS'Jehoiakim'
p2498
I2545
sS'With'
p2499
I2546
sS'Spirit'
p2500
I2547
sS'Kenites'
p2501
I2548
sS'Aram'
p2502
I2549
sS'play'
p2503
I2550
sS'Hadad'
p2504
I2551
sS'Thy'
p2505
I2552
sS'reckon'
p2506
I2553
sS'measures'
p2507
I2554
sS'reach'
p2508
I2555
sS'depths'
p2509
I2556
sS'most'
p2510
I2557
sS'hired'
p2511
I2558
sS'eaten'
p2512
I2560
sS'nothing'
p2513
I2561
sS'Jerimoth'
p2514
I334
sS'The'
p2515
I2563
sS'custom'
p2516
I2977
sS'measured'
p2517
I2565
sS'bosom'
p2518
I2341
sS'hateth'
p2519
I3475
sS'Levite'
p2520
I2567
sS'Bezer'
p2521
I2568
sS'windows'
p2522
I633
sS'clear'
p2523
I2570
sS'archers'
p2524
I2571
sS'cover'
p2525
I2572
sS'tongs'
p2526
I2573
sS'sepulchre'
p2527
I3157
sS'treasures'
p2528
I2496
sS'clean'
p2529
I2577
sS'Shinar'
p2530
I2578
sS'barren'
p2531
I2579
sS'barrel'
p2532
I1027
sS'If'
p2533
I1817
sS'pomegranates'
p2534
I2582
sS'jeopardy'
p2535
I2583
sS'lying'
p2536
I2584
sS'stones'
p2537
I2585
sS'intreated'
p2538
I2586
sS'despise'
p2539
I2587
sS'Ham'
p2540
I2588
sS'gold'
p2541
I2589
sS'summer'
p2542
I1819
sS'overlaid'
p2543
I3688
sS'fins'
p2544
I2591
sS'weapons'
p2545
I1655
sS'scattered'
p2546
I2593
sS'Achsah'
p2547
I2594
sS'Gilead'
p2548
I2595
sS'large'
p2549
I2120
sS'stoned'
p2550
I2596
sS'Behold'
p2551
I2597
sS'heavens'
p2552
I2598
sS'fine'
p2553
I2599
sS'find'
p2554
I2600
sS'Jael'
p2555
I2601
sS'standeth'
p2556
I2602
sS'giant'
p2557
I2603
sS'abated'
p2558
I443
sS'justice'
p2559
I2605
sS'camel'
p2560
I2606
sS'fruit'
p2561
I2448
sS'Pharaohnechoh'
p2562
I3886
sS'failed'
p2563
I2608
sS'Gileadite'
p2564
I2609
sS'defiled'
p2565
I2610
sS'8'
p2566
I2611
sS'giants'
p2567
I2612
sS'shepherd'
p2568
I2613
sS'Ornan'
p2569
I1391
sS'dust'
p2570
I3812
sS'beams'
p2571
I2615
sS'flowing'
p2572
I3165
sS'trees'
p2573
I2618
sS'speckled'
p2574
I2619
sS'feasts'
p2575
I591
sS'While'
p2576
I2621
sS'kine'
p2577
I2622
sS'hid'
p2578
I2623
sS'breast'
p2579
I2624
sS'Both'
p2580
I2867
sS'compass'
p2581
I2625
sS'sepulchres'
p2582
I2626
sS'beards'
p2583
I2627
sS'him'
p2584
I2629
sS'hin'
p2585
I2630
sS'molten'
p2586
I2631
sS'enemy'
p2587
I2632
sS'devoured'
p2588
I2633
sS'sacrificed'
p2589
I1253
sS'tumult'
p2590
I2635
sS'engraver'
p2591
I2636
sS'Whosoever'
p2592
I2505
sS'doubled'
p2593
I2638
sS'sojourn'
p2594
I2639
sS'sacrifices'
p2595
I2640
sS'wroth'
p2596
I2641
sS'common'
p2597
I2642
sS'Jehoshaphat'
p2598
I2643
sS'double'
p2599
I2644
sS'gathered'
p2600
I3172
sS'kill'
p2601
I2645
sS'weaver'
p2602
I2646
sS'river'
p2603
I2647
sS'Ebenezer'
p2604
I2648
sS'wrote'
p2605
I2649
sS'seventeen'
p2606
I2650
sS'set'
p2607
I2651
sS'Nemuel'
p2608
I143
sS'For'
p2609
I2653
sS'vine'
p2610
I2654
sS'Abimelech'
p2611
I2655
sS'Pass'
p2612
I2656
sS'tip'
p2613
I2657
sS'see'
p2614
I2658
sS'bare'
p2615
I2659
sS'are'
p2616
I2660
sS'sea'
p2617
I2661
sS'tender'
p2618
I2662
sS'close'
p2619
I2663
sS'Neither'
p2620
I2664
sS'ark'
p2621
I2665
sS'hole'
p2622
I2666
sS'arm'
p2623
I2667
sS'feared'
p2624
I2668
sS'youth'
p2625
I2510
sS'spirits'
p2626
I2670
sS'expert'
p2627
I2671
sS'entereth'
p2628
I242
sS'wot'
p2629
I2673
sS'please'
p2630
I2675
sS'idle'
p2631
I2676
sS'emerods'
p2632
I2677
sS'determined'
p2633
I2512
sS'milch'
p2634
I3851
sS'Egyptians'
p2635
I2679
sS'burned'
p2636
I2680
sS'Isaiah'
p2637
I144
sS'slaying'
p2638
I1427
sS'Nethaneel'
p2639
I2683
sS'Micah'
p2640
I2684
sS'Dagon'
p2641
I2685
sS'smite'
p2642
I3853
sS'sold'
p2643
I2687
sS'sole'
p2644
I2688
sS'Aner'
p2645
I2689
sS'hill'
p2646
I2690
sS'Zadok'
p2647
I2691
sS'blot'
p2648
I2692
sS'Anakims'
p2649
I2693
sS'trespassed'
p2650
I2694
sS'Reubenites'
p2651
I2695
sS'Naioth'
p2652
I2696
sS'Merari'
p2653
I2697
sS'league'
p2654
I2592
sS'toward'
p2655
I2517
sS'last'
p2656
I2700
sS'journeyed'
p2657
I2701
sS'harps'
p2658
I2702
sS'thou'
p2659
I2703
sS'inwards'
p2660
I2704
sS'Wherefore'
p2661
I2245
sS'begun'
p2662
I2705
sS'declare'
p2663
I2518
sS'Bezek'
p2664
I2580
sS'became'
p2665
I2706
sS'prayer'
p2666
I2707
sS'bondman'
p2667
I2708
sS'forgotten'
p2668
I2709
sS'Moreh'
p2669
I673
sS'Yet'
p2670
I2711
sS'cakes'
p2671
I2712
sS'consume'
p2672
I2745
sS'point'
p2673
I2714
sS'sweet'
p2674
I2715
sS'Naarah'
p2675
I2716
sS'hollow'
p2676
I2717
sS'waxen'
p2677
I2221
sS'Hivite'
p2678
I2718
sS'dances'
p2679
I2719
sS'Gera'
p2680
I2720
sS'vessel'
p2681
I2721
sS'throughout'
p2682
I2722
sS'Shamir'
p2683
I2723
sS'goats'
p2684
I2724
sS'bolster'
p2685
I2725
sS'Bethel'
p2686
I2726
sS'Edom'
p2687
I2727
sS'Kedesh'
p2688
I2728
sS'raise'
p2689
I2729
sS'smote'
p2690
I2730
sS'Laadan'
p2691
I2732
sS'bondwoman'
p2692
I2733
sS'due'
p2693
I2734
sS'Amorite'
p2694
I2520
sS'secret'
p2695
I2736
sS'Naphtali'
p2696
I2737
sS'God'
p2697
I2521
sS'Abiezer'
p2698
I2738
sS'brick'
p2699
I2739
sS'wait'
p2700
I2740
sS'empty'
p2701
I2741
sS'Gibeonites'
p2702
I2742
sS'Elhanan'
p2703
I2743
sS'lived'
p2704
I2744
sS'flight'
p2705
I4037
sS'champion'
p2706
I2746
sS'fire'
p2707
I2747
sS'gat'
p2708
I2748
sS'else'
p2709
I2749
sS'fleshhooks'
p2710
I3861
sS'awake'
p2711
I63
sS'liver'
p2712
I2752
sS'receive'
p2713
I3191
sS'towns'
p2714
I2754
sS'presented'
p2715
I2373
sS'stolen'
p2716
I2756
sS'utmost'
p2717
I2757
sS'look'
p2718
I2758
sS'workmen'
p2719
I44
sS'Jazer'
p2720
I2760
sS'straight'
p2721
I2761
sS'Rachel'
p2722
I60
sS'governor'
p2723
I2763
sS'Cursed'
p2724
I2764
sS'distressed'
p2725
I2765
sS'while'
p2726
I2766
sS'apothecary'
p2727
I4028
sS'pressed'
p2728
I2768
sS'rigour'
p2729
I2769
sS'chariots'
p2730
I2770
sS'alike'
p2731
I2772
sS'birthright'
p2732
I2773
sS'Joash'
p2733
I2774
sS'costly'
p2734
I2775
sS'wild'
p2735
I3767
sS'walketh'
p2736
I2776
sS'violently'
p2737
I2777
sS'Furthermore'
p2738
I2778
sS'binding'
p2739
I2779
sS'36'
p2740
I3195
sS'rulers'
p2741
I2782
sS'Gather'
p2742
I3112
sS'vow'
p2743
I189
sS'Hearken'
p2744
I194
sS'uncovereth'
p2745
I2785
sS'timbrels'
p2746
I204
sS'Ira'
p2747
I2787
sS'hoar'
p2748
I210
sS'sittest'
p2749
I437
sS'Hashabiah'
p2750
I1162
sS'Kidron'
p2751
I226
sS'sabbaths'
p2752
I2792
sS'Gittite'
p2753
I2793
sS'since'
p2754
I2405
sS'grant'
p2755
I2795
sS'belong'
p2756
I2796
sS'ewe'
p2757
I2797
sS'wherein'
p2758
I2798
sS'Lotan'
p2759
I2799
sS'Ishbosheth'
p2760
I2800
sS'esteemed'
p2761
I936
sS'advise'
p2762
I2804
sS'daughters'
p2763
I2805
sS'higher'
p2764
I2806
sS'commune'
p2765
I2807
sS'About'
p2766
I2808
sS'used'
p2767
I2809
sS'displeased'
p2768
I2810
sS'Balaam'
p2769
I3200
sS'Then'
p2770
I483
sS'cloud'
p2771
I3222
sS'pomegranate'
p2772
I2813
sS'recovered'
p2773
I2814
sS'yesterday'
p2774
I2815
sS'stooped'
p2775
I3871
sS'Mephibosheth'
p2776
I2817
sS'moment'
p2777
I2818
sS'Amaziah'
p2778
I2819
sS'wouldest'
p2779
I3202
sS'along'
p2780
I2820
sS'asketh'
p2781
I3180
sS'dark'
p2782
I2821
sS'lower'
p2783
I2822
sS'Omri'
p2784
I2823
sS'prophet'
p2785
I2443
sS'lacking'
p2786
I2826
sS'spent'
p2787
I2827
sS'Phichol'
p2788
I2828
sS'magnified'
p2789
I2829
sS'morrow'
p2790
I2830
sS'person'
p2791
I2831
sS'Gird'
p2792
I2832
sS'edge'
p2793
I2833
sS'chronicles'
p2794
I2834
sS'five'
p2795
I3875
sS'Jerusalem'
p2796
I2836
sS'Bethlehemjudah'
p2797
I2837
sS'confirm'
p2798
I2838
sS'plagues'
p2799
I2839
sS'Gomorrah'
p2800
I2840
sS'judgments'
p2801
I2841
sS'Philistine'
p2802
I2842
sS'pigeons'
p2803
I560
sS'morsel'
p2804
I2844
sS'quarters'
p2805
I2845
sS'plagued'
p2806
I2846
sS'praying'
p2807
I2848
sS'prince'
p2808
I2849
sS'unto'
p2809
I2850
sS'timber'
p2810
I2851
sS'tables'
p2811
I2852
sS'cut'
p2812
I2853
sS'hearest'
p2813
I2854
sS'cup'
p2814
I2855
sS'hated'
p2815
I2856
sS'sevenfold'
p2816
I1169
sS'prospered'
p2817
I2858
sS'speedily'
p2818
I2859
sS'pillars'
p2819
I2860
sS'cud'
p2820
I2862
sS'testimonies'
p2821
I2863
sS'7'
p2822
I2412
sS'ruled'
p2823
I1855
sS'waxed'
p2824
I2226
sS'remaining'
p2825
I2865
sS'Uzziel'
p2826
I2866
sS'On'
p2827
I718
sS'doors'
p2828
I2868
sS'adversaries'
p2829
I734
sS'Oh'
p2830
I2870
sS'Og'
p2831
I743
sS'Of'
p2832
I2872
sS'couple'
p2833
I2873
sS'saluted'
p2834
I2874
sS'wives'
p2835
I2875
sS'curses'
p2836
I3352
sS'matters'
p2837
I770
sS'redeem'
p2838
I2877
sS'Ain'
p2839
I1221
sS'nostrils'
p2840
I3009
sS'Nahash'
p2841
I2880
sS'bullock'
p2842
I2881
sS'Or'
p2843
I808
sS'overthrown'
p2844
I2883
sS'defied'
p2845
I2884
sS'straitly'
p2846
I2885
sS'blemish'
p2847
I2886
sS'forepart'
p2848
I2887
sS'Shammai'
p2849
I2888
sS'Bani'
p2850
I2889
sS'covereth'
p2851
I847
sS'Sisera'
p2852
I2891
sS'strife'
p2853
I2892
sS'causeth'
p2854
I2894
sS'continue'
p2855
I2895
sS'provoking'
p2856
I2896
sS'Kadeshbarnea'
p2857
I4014
sS'tribes'
p2858
I882
sS'fault'
p2859
I3766
sS'saddled'
p2860
I2900
sS'Bethpeor'
p2861
I2901
sS'canst'
p2862
I2902
sS'valleys'
p2863
I2903
sS'Keturah'
p2864
I2904
sS'spring'
p2865
I2906
sS'fathers'
p2866
I2907
sS'some'
p2867
I280
sS'back'
p2868
I2909
sS'understood'
p2869
I2910
sS'lips'
p2870
I2911
sS'mighty'
p2871
I2912
sS'Choose'
p2872
I2913
sS'ornaments'
p2873
I967
sS'curious'
p2874
I2916
sS'roebuck'
p2875
I2917
sS'sufficient'
p2876
I2919
sS'ourselves'
p2877
I2920
sS'delivered'
p2878
I2922
sS'frontlets'
p2879
I2923
sS'scall'
p2880
I2924
sS'though'
p2881
I2925
sS'exceeding'
p2882
I2926
sS'quickly'
p2883
I3973
sS'wilderness'
p2884
I3964
sS'laden'
p2885
I2825
sS'deliverer'
p2886
I2928
sS'hosts'
p2887
I3887
sS'temple'
p2888
I2930
sS'Girgashites'
p2889
I4007
sS'be'
p2890
I2931
sS'eating'
p2891
I1112
sS'Look'
p2892
I2933
sS'breastplate'
p2893
I2934
sS'remembered'
p2894
I2935
sS'Draw'
p2895
I2936
sS'O'
p2896
I2937
sS'David'
p2897
I1144
sS'Command'
p2898
I2939
sS'flanks'
p2899
I1172
sS'from'
p2900
I3226
sS'pitchers'
p2901
I2943
sS'abroad'
p2902
I1190
sS'goods'
p2903
I1209
sS'mingled'
p2904
I2946
sS'anything'
p2905
I2947
sS'row'
p2906
I2948
sS'Rehoboam'
p2907
I2949
sS'Talmai'
p2908
I2950
sS'stricken'
p2909
I2951
sS'ambush'
p2910
I2952
sS'Aijalon'
p2911
I2953
sS'engravings'
p2912
I2954
sS'Kore'
p2913
I3542
sS'standest'
p2914
I2956
sS'Pagiel'
p2915
I2957
sS'Jabesh'
p2916
I2958
sS'taches'
p2917
I2959
sS'miracles'
p2918
I2960
sS'repair'
p2919
I1302
sS'Eli'
p2920
I2962
sS'letter'
p2921
I927
sS'into'
p2922
I2964
sS'within'
p2923
I2965
sS'coffer'
p2924
I2966
sS'Their'
p2925
I2967
sS'seasons'
p2926
I2562
sS'remembrance'
p2927
I2969
sS'Cushi'
p2928
I1381
sS'rows'
p2929
I2971
sS'span'
p2930
I2972
sS'smiteth'
p2931
I1417
sS'besieged'
p2932
I2974
sS'lintel'
p2933
I2975
sS'fast'
p2934
I1444
sS'Called'
p2935
I2566
sS'loveth'
p2936
I2978
sS'worshipped'
p2937
I2979
sS'spakest'
p2938
I1465
sS'divisions'
p2939
I3752
sS'forward'
p2940
I2983
sS'prey'
p2941
I2984
sS'Baalpeor'
p2942
I2985
sS':'
p2943
I2986
sS'Come'
p2944
I2987
sS'disallowed'
p2945
I2988
sS'Hamor'
p2946
I2989
sS'mountains'
p2947
I2990
sS'himself'
p2948
I2991
sS'Hur'
p2949
I3231
sS'Hinnom'
p2950
I2993
sS'raisins'
p2951
I2994
sS'Ishmeelites'
p2952
I2995
sS'cloth'
p2953
I2996
sS'mulberry'
p2954
I2997
sS'Mesopotamia'
p2955
I3120
sS'alive'
p2956
I3901
sS'sick'
p2957
I4054
sS'upright'
p2958
I3000
sS'line'
p2959
I3001
sS'wholly'
p2960
I3423
sS'usury'
p2961
I3002
sS'Jehoiada'
p2962
I3003
sS'tabernacle'
p2963
I3975
sS'redeemed'
p2964
I3004
sS'Bela'
p2965
I3005
sS'concubines'
p2966
I1640
sS'seven'
p2967
I715
sS'Baalhanan'
p2968
I3008
sS'lords'
p2969
I3209
sS'Elam'
p2970
I898
sS'Elah'
p2971
I3010
sS'pavilions'
p2972
I3011
sS'apiece'
p2973
I3012
sS'cubits'
p2974
I3013
sS'Jehoiachin'
p2975
I3014
sS'alarm'
p2976
I2794
sS'bell'
p2977
I3855
sS'sort'
p2978
I3236
sS'camp'
p2979
I3019
sS'Ashtaroth'
p2980
I3020
sS'goodly'
p2981
I3021
sS'stripped'
p2982
I1718
sS'merry'
p2983
I3690
sS'To'
p2984
I1741
sS'consulted'
p2985
I3025
sS'mightier'
p2986
I3026
sS'seethe'
p2987
I1751
sS'necks'
p2988
I3028
sS'Kadesh'
p2989
I3029
sS'Ephratah'
p2990
I3030
sS'prevail'
p2991
I3032
sS'Danites'
p2992
I3033
sS'brethren'
p2993
I3034
sS'evils'
p2994
I1810
sS'ascent'
p2995
I1882
sS'peace'
p2996
I3037
sS'thanks'
p2997
I3038
sS'backs'
p2998
I3039
sS'Bilhah'
p2999
I3040
sS'magicians'
p3000
I3279
sS'Eliphelet'
p3001
I3041
sS'brasen'
p3002
I2576
sS'enquired'
p3003
I3043
sS'Asenath'
p3004
I3044
sS'nay'
p3005
I3045
sS'Mattithiah'
p3006
I3046
sS'Zur'
p3007
I3047
sS'scapegoat'
p3008
I195
sS'Tibni'
p3009
I1325
sS'heir'
p3010
I3242
sS'AM'
p3011
I3051
sS'Tharshish'
p3012
I1911
sS'Jeshimon'
p3013
I1916
sS'Onam'
p3014
I1922
sS'Onan'
p3015
I3055
sS'rested'
p3016
I3056
sS'utterly'
p3017
I1940
sS'lent'
p3018
I1945
sS'revenger'
p3019
I3059
sS'Mahalaleel'
p3020
I3060
sS'sides'
p3021
I961
sS'Shittim'
p3022
I3062
sS'whoring'
p3023
I3063
sS'land'
p3024
I3064
sS'lead'
p3025
I3912
sS'wafer'
p3026
I3066
sS'sore'
p3027
I3245
sS'Ai'
p3028
I3067
sS'age'
p3029
I3068
sS'Ahijah'
p3030
I2000
sS'Kanah'
p3031
I1746
sS'walked'
p3032
I3071
sS'An'
p3033
I3072
sS'As'
p3034
I3073
sS'Ar'
p3035
I2030
sS'Pelonite'
p3036
I3075
sS'At'
p3037
I3076
sS'oracle'
p3038
I3077
sS'carved'
p3039
I3771
sS'having'
p3040
I3078
sS'once'
p3041
I3080
sS'Azel'
p3042
I3081
sS'treasuries'
p3043
I3082
sS'Elioenai'
p3044
I2021
sS'hooks'
p3045
I3084
sS'highways'
p3046
I2113
sS'Abiathar'
p3047
I1540
sS'sanctuary'
p3048
I3087
sS'Moabitess'
p3049
I2126
sS'shone'
p3050
I3918
sS'lend'
p3051
I1890
sS'Midianites'
p3052
I3090
sS'go'
p3053
I3091
sS'seemed'
p3054
I3092
sS'Michal'
p3055
I3093
sS'Maachathite'
p3056
I3094
sS'anointed'
p3057
I3095
sS'journeys'
p3058
I2590
sS'young'
p3059
I3097
sS'Nob'
p3060
I2202
sS'appointed'
p3061
I3250
sS'breaches'
p3062
I3100
sS'whoredom'
p3063
I3101
sS'Not'
p3064
I3102
sS'graven'
p3065
I259
sS'Now'
p3066
I3104
sS'shekel'
p3067
I3438
sS'sent'
p3068
I3105
sS'abode'
p3069
I3106
sS'Shimeah'
p3070
I3107
sS'Edomite'
p3071
I3108
sS'queen'
p3072
I3109
sS'Hanun'
p3073
I2264
sS'walled'
p3074
I3111
sS'Elpaal'
p3075
I2767
sS'Tahath'
p3076
I3113
sS'wave'
p3077
I3114
sS'forgiven'
p3078
I3921
sS'spoon'
p3079
I3116
sS'putting'
p3080
I3117
sS'telling'
p3081
I3118
sS'yourselves'
p3082
I3119
sS'drinking'
p3083
I2328
sS'continued'
p3084
I2338
sS'kindled'
p3085
I3122
sS'tenons'
p3086
I2349
sS'courage'
p3087
I3319
sS'iniquity'
p3088
I3124
sS'Hamath'
p3089
I3125
sS'counselled'
p3090
I2383
sS'watered'
p3091
I3127
sS'cleansed'
p3092
I3128
sS'deals'
p3093
I3129
sS'Halah'
p3094
I3130
sS'knife'
p3095
I1899
sS'dealt'
p3096
I3132
sS'Enoch'
p3097
I3133
sS'Kohathites'
p3098
I2436
sS'ride'
p3099
I3258
sS'Unto'
p3100
I3136
sS'hunter'
p3101
I2359
sS'Alemeth'
p3102
I2457
sS'transgressed'
p3103
I3138
sS'sentest'
p3104
I2470
sS'toucheth'
p3105
I3140
sS'Lebanon'
p3106
I3141
sS'horsemen'
p3107
I2180
sS'Tirzah'
p3108
I3143
sS'rivers'
p3109
I3144
sS'Helon'
p3110
I3145
sS'noise'
p3111
I3927
sS'proceedeth'
p3112
I3147
sS'Samson'
p3113
I2201
sS'notwithstanding'
p3114
I2525
sS'assembly'
p3115
I3150
sS'abominable'
p3116
I3151
sS'tempted'
p3117
I3152
sS'outgoings'
p3118
I3153
sS'power'
p3119
I1905
sS'Terah'
p3120
I2409
sS'Ashtoreth'
p3121
I3156
sS'giving'
p3122
I2574
sS'Zedekiah'
p3123
I3158
sS'Engedi'
p3124
I3198
sS'Uz'
p3125
I3931
sS'fat'
p3126
I2105
sS'expressed'
p3127
I3160
sS'henceforth'
p3128
I3161
sS'Aiah'
p3129
I3162
sS'Alas'
p3130
I3163
sS'Maachah'
p3131
I3164
sS'manservant'
p3132
I2843
sS'*******'
p3133
I3166
sS';'
p3134
I3167
sS'preserved'
p3135
I2094
sS'body'
p3136
I3169
sS'led'
p3137
I3170
sS'chose'
p3138
I3171
sS'beasts'
p3139
I2682
sS'stature'
p3140
I3086
sS'sins'
p3141
I3174
sS'fifteenth'
p3142
I3175
sS'spake'
p3143
I3176
sS'youngest'
p3144
I3177
sS'desired'
p3145
I3178
sS'let'
p3146
I3179
sS'Succoth'
p3147
I2713
sS'making'
p3148
I1866
sS'sing'
p3149
I3182
sS'Hazarshual'
p3150
I3183
sS'fifteen'
p3151
I3184
sS'Ahilud'
p3152
I3185
sS'vinegar'
p3153
I3187
sS'great'
p3154
I3188
sS'talent'
p3155
I3189
sS'bitterness'
p3156
I3190
sS'33'
p3157
I781
sS'Likewise'
p3158
I661
sS'31'
p3159
I3193
sS'30'
p3160
I3194
sS'unwittingly'
p3161
I2781
sS'35'
p3162
I3196
sS'34'
p3163
I879
sS'Pedaiah'
p3164
I2196
sS'Elisha'
p3165
I3199
sS'Hoshea'
p3166
I2811
sS'requite'
p3167
I3201
sS'portions'
p3168
I2152
sS'spices'
p3169
I3203
sS'salvation'
p3170
I3204
sS'almug'
p3171
I3205
sS'perished'
p3172
I3206
sS'Keilah'
p3173
I3207
sS'named'
p3174
I3208
sS'chains'
p3175
I3923
sS'spy'
p3176
I1014
sS'forbid'
p3177
I3210
sS'manna'
p3178
I3211
sS'Beerothite'
p3179
I3212
sS'mice'
p3180
I3213
sS'baskets'
p3181
I2879
sS'wit'
p3182
I3215
sS'fenced'
p3183
I3096
sS'names'
p3184
I3216
sS'Dishan'
p3185
I3217
sS'Azrikam'
p3186
I3218
sS'ninth'
p3187
I3219
sS'singing'
p3188
I3220
sS'pursueth'
p3189
I3221
sS'Bezaleel'
p3190
I2927
sS'handfuls'
p3191
I3223
sS'standing'
p3192
I3224
sS'use'
p3193
I1263
sS'Beor'
p3194
I2942
sS'abiding'
p3195
I3227
sS'Elath'
p3196
I2955
sS'throw'
p3197
I1917
sS'frogs'
p3198
I2354
sS'weeping'
p3199
I2992
sS'offereth'
p3200
I3232
sS'butler'
p3201
I3233
sS'themselves'
p3202
I3234
sS'moved'
p3203
I3740
sS'judged'
p3204
I3235
sS'possession'
p3205
I3018
sS'Hanani'
p3206
I2674
sS'victory'
p3207
I3238
sS'armourbearer'
p3208
I3819
sS'porch'
p3209
I3239
sS'shew'
p3210
I3903
sS'statutes'
p3211
I3240
sS'testified'
p3212
I3050
sS'sister'
p3213
I3947
sS'Libni'
p3214
I3244
sS'foolishly'
p3215
I366
sS'carrying'
p3216
I3246
sS'ashamed'
p3217
I3247
sS'hardened'
p3218
I3248
sS'harvest'
p3219
I3249
sS'looketh'
p3220
I3099
sS'women'
p3221
I3251
sS'Benjamites'
p3222
I3252
sS'escaped'
p3223
I3276
sS'Gibeon'
p3224
I3254
sS'locks'
p3225
I3255
sS'this'
p3226
I3256
sS'Nepheg'
p3227
I3257
sS'convocations'
p3228
I3135
sS'pour'
p3229
I3259
sS'thin'
p3230
I3260
sS'praise'
p3231
I2404
sS'of'
p3232
I1924
sS'shook'
p3233
I3263
sS'meet'
p3234
I3264
sS'fetch'
p3235
I3197
sS'performed'
p3236
I3266
sS'tokens'
p3237
I3267
sS'ordained'
p3238
I3268
sS'reserved'
p3239
I3269
sS'plate'
p3240
I3270
sS'process'
p3241
I3271
sS'Isshiah'
p3242
I3272
sS'Uzzah'
p3243
I3273
sS'rode'
p3244
I3274
sS'pieces'
p3245
I3275
sS'high'
p3246
I3253
sS'Almighty'
p3247
I3277
sS'Eglon'
p3248
I3278
sS'his'
p3249
I2614
sS'Geshur'
p3250
I3280
sS'Japhia'
p3251
I3281
sS'sought'
p3252
I212
sS'Edrei'
p3253
I3283
sS'rods'
p3254
I3284
sS'made'
p3255
I3628
sS'trumpet'
p3256
I3285
sS'lamb'
p3257
I3286
sS'pure'
p3258
I2449
sS'destroying'
p3259
I3288
sS'skirt'
p3260
I3289
sS'restrained'
p3261
I3061
sS'holds'
p3262
I635
sS'Ye'
p3263
I3291
sS'lamp'
p3264
I3292
sS'camels'
p3265
I3293
sS'forest'
p3266
I3294
sS'instead'
p3267
I3295
sS'furnace'
p3268
I3296
sS'sin'
p3269
I3297
sS'greatly'
p3270
I3298
sS'hangings'
p3271
I3300
sS'locusts'
p3272
I1781
sS'Joel'
p3273
I995
sS'Malchiel'
p3274
I3303
sS'Red'
p3275
I3304
sS'perceive'
p3276
I3305
sS'vineyards'
p3277
I3306
sS'messengers'
p3278
I3214
sS'hawk'
p3279
I2128
sS'Bethhoron'
p3280
I3308
sS'Adullam'
p3281
I3309
sS'consecrated'
p3282
I3310
sS'Abinadab'
p3283
I3311
sS'famous'
p3284
I2620
sS'light'
p3285
I3312
sS'sit'
p3286
I3287
sS'Chinnereth'
p3287
I3314
sS'Meribah'
p3288
I3315
sS'Zuph'
p3289
I1272
sS'linen'
p3290
I3317
sS'chief'
p3291
I3318
sS'supplication'
p3292
I1925
sS'presumptuously'
p3293
I3320
sS'eventide'
p3294
I3321
sS'Kings'
p3295
I3322
sS'looking'
p3296
I3323
sS'divided'
p3297
I1245
sS'cometh'
p3298
I3783
sS'Smite'
p3299
I3325
sS'Meribbaal'
p3300
I3326
sS'six'
p3301
I1800
sS'stamped'
p3302
I563
sS'firstling'
p3303
I3329
sS'parlour'
p3304
I3330
sS'belongeth'
p3305
I2205
sS'damsel'
p3306
I3332
sS'rebellious'
p3307
I3333
sS'interpreted'
p3308
I3334
sS'Beside'
p3309
I3335
sS'covet'
p3310
I3015
sS'warred'
p3311
I3337
sS'horns'
p3312
I3338
sS'Gihon'
p3313
I3339
sS'Jabbok'
p3314
I3340
sS'thyself'
p3315
I3341
sS'perfect'
p3316
I3343
sS'write'
p3317
I3344
sS'Gerar'
p3318
I3345
sS'Tiglathpileser'
p3319
I3346
sS'whereon'
p3320
I3692
sS'till'
p3321
I1249
sS'lentiles'
p3322
I3349
sS'lo'
p3323
I3350
sS'Azmon'
p3324
I3351
sS'Shuppim'
p3325
I892
sS'ships'
p3326
I1165
sS'whereof'
p3327
I3354
sS'Bethaven'
p3328
I3355
sS'Eshtemoa'
p3329
I3356
sS'willing'
p3330
I3357
sS'degrees'
p3331
I3358
sS'choose'
p3332
I3359
sS'seeth'
p3333
I3360
sS'covered'
p3334
I3361
sS'Enrogel'
p3335
I3362
sS'Knowest'
p3336
I3363
sS'eastward'
p3337
I3364
sS'prosper'
p3338
I3365
sS'prophetess'
p3339
I3366
sS'Asaph'
p3340
I3367
sS'Amminadab'
p3341
I1684
sS'ringstraked'
p3342
I3803
sS'Elihu'
p3343
I3369
sS'dam'
p3344
I3370
sS'bereaved'
p3345
I4092
sS'Nahshon'
p3346
I2780
sS'Adah'
p3347
I3372
sS'mention'
p3348
I3373
sS'rebel'
p3349
I3374
sS'Adam'
p3350
I3375
sS'kiss'
p3351
I3376
sS'hands'
p3352
I3377
sS'trade'
p3353
I2321
sS'kindness'
p3354
I3378
sS'flee'
p3355
I3379
sS'day'
p3356
I3380
sS'shoulderpieces'
p3357
I3381
sS'sinners'
p3358
I3382
sS'riseth'
p3359
I3383
sS'Shebuel'
p3360
I3384
sS'bason'
p3361
I3385
sS'Hebrews'
p3362
I2634
sS'whither'
p3363
I3387
sS'guard'
p3364
I3968
sS'revolted'
p3365
I54
sS'Zoar'
p3366
I3390
sS'Say'
p3367
I3391
sS'dwelleth'
p3368
I3392
sS'truth'
p3369
I3393
sS'Aholiab'
p3370
I3394
sS'beneath'
p3371
I3395
sS'Gedaliah'
p3372
I3396
sS'Amariah'
p3373
I3397
sS'upward'
p3374
I3398
sS'few'
p3375
I3230
sS'lie'
p3376
I2812
sS'Timnath'
p3377
I3399
sS'cry'
p3378
I2637
sS'From'
p3379
I3401
sS'Mizpeh'
p3380
I2575
sS'provender'
p3381
I3403
sS'strip'
p3382
I3404
sS'harlot'
p3383
I3121
sS'lusteth'
p3384
I3406
sS'thunders'
p3385
I3548
sS'thirteen'
p3386
I3407
sS'Which'
p3387
I3408
sS'measure'
p3388
I3409
sS'Nathan'
p3389
I3301
sS'tithe'
p3390
I2604
sS'tenth'
p3391
I3412
sS'shearing'
p3392
I1333
sS'witness'
p3393
I3414
sS'out'
p3394
I3415
sS'secretly'
p3395
I3416
sS'matrix'
p3396
I3418
sS"'"
p3397
I3419
sS'twice'
p3398
I370
sS'wheresoever'
p3399
I3974
sS'defend'
p3400
I876
sS'sufficed'
p3401
I3422
sS'Chedorlaomer'
p3402
I3181
sS'your'
p3403
I1952
sS'softly'
p3404
I3424
sS'Abarim'
p3405
I2753
sS'barley'
p3406
I3426
sS'Edomites'
p3407
I999
sS'cause'
p3408
I3428
sS'waters'
p3409
I3302
sS'red'
p3410
I3430
sS'Hadadezer'
p3411
I3431
sS'Eshcol'
p3412
I3427
sS'shut'
p3413
I3432
sS'Sheba'
p3414
I3433
sS'perish'
p3415
I3434
sS'This'
p3416
I3435
sS'spot'
p3417
I3436
sS'mule'
p3418
I3437
sS'fourteen'
p3419
I113
sS'Swear'
p3420
I3439
sS'chapiter'
p3421
I125
sS'tied'
p3422
I3441
sS'tempt'
p3423
I3442
sS'thrust'
p3424
I3443
sS'afterward'
p3425
I3444
sS'Gentiles'
p3426
I3978
sS'Rimmon'
p3427
I3446
sS'prepare'
p3428
I3448
sS'keepeth'
p3429
I3449
sS'could'
p3430
I3450
sS'put'
p3431
I2433
sS'Nadab'
p3432
I3452
sS'times'
p3433
I209
sS'bird'
p3434
I3168
sS'length'
p3435
I3454
sS'withs'
p3436
I3456
sS'hence'
p3437
I3457
sS'curseth'
p3438
I3458
sS'south'
p3439
I3459
sS'Zion'
p3440
I3461
sS'Zuar'
p3441
I283
sS'Guni'
p3442
I3463
sS'womenservants'
p3443
I3464
sS'savour'
p3444
I3465
sS'bars'
p3445
I3466
sS'heareth'
p3446
I1103
sS'hitherto'
p3447
I3468
sS'takest'
p3448
I3469
sS'eleventh'
p3449
I3470
sS'Jabez'
p3450
I1761
sS'owner'
p3451
I3472
sS'art'
p3452
I2652
sS'captains'
p3453
I3474
sS'sockets'
p3454
I361
sS'gerahs'
p3455
I3476
sS'ancient'
p3456
I383
sS'cloths'
p3457
I3478
sS'revealed'
p3458
I3479
sS'chased'
p3459
I408
sS'Miriam'
p3460
I3481
sS'eighth'
p3461
I3482
sS'their'
p3462
I3483
sS'Ittai'
p3463
I3484
sS'maidens'
p3464
I3485
sS'wrapped'
p3465
I3487
sS'LORD'
p3466
I3488
sS'lovest'
p3467
I2762
sS'behaved'
p3468
I3490
sS'prophesy'
p3469
I3491
sS'Argob'
p3470
I3079
sS'beard'
p3471
I1923
sS'Ikkesh'
p3472
I3494
sS'consecration'
p3473
I3495
sS'lot'
p3474
I3496
sS'Goshen'
p3475
I3497
sS'Goliath'
p3476
I3498
sS'Moab'
p3477
I3499
sS'disguised'
p3478
I3500
sS'mules'
p3479
I3501
sS'diminish'
p3480
I3502
sS'Zorah'
p3481
I970
sS'herself'
p3482
I3504
sS'Hananiah'
p3483
I2482
sS'loved'
p3484
I3506
sS'bid'
p3485
I3507
sS'slack'
p3486
I574
sS'minister'
p3487
I3509
sS'girdle'
p3488
I3510
sS'coast'
p3489
I3511
sS'Caleb'
p3490
I594
sS'lion'
p3491
I3513
sS'bed'
p3492
I3514
sS'Jabeshgilead'
p3493
I602
sS'Jobab'
p3494
I3516
sS'transgression'
p3495
I3517
sS'Jashobeam'
p3496
I2899
sS'Chilion'
p3497
I3489
sS'bind'
p3498
I3519
sS'Abib'
p3499
I3520
sS'visited'
p3500
I3521
sS'Zebadiah'
p3501
I3522
sS'rate'
p3502
I3155
sS'speakest'
p3503
I3524
sS'drunk'
p3504
I3525
sS'false'
p3505
I3526
sS'lightly'
p3506
I3528
sS'fowl'
p3507
I3529
sS'abomination'
p3508
I3530
sS'Zimri'
p3509
I3988
sS'boil'
p3510
I3492
sS'westward'
p3511
I3532
sS'Balak'
p3512
I3533
sS'fail'
p3513
I3534
sS'thereto'
p3514
I704
sS'buy'
p3515
I3989
sS'fourteenth'
p3516
I717
sS'chambers'
p3517
I3538
sS'host'
p3518
I3936
sS'mischief'
p3519
I1973
sS'trembling'
p3520
I1607
sS'Jonadab'
p3521
I548
sS'Gaal'
p3522
I3543
sS'sayings'
p3523
I3544
sS'afraid'
p3524
I3545
sS'overthrew'
p3525
I3546
sS'dishes'
p3526
I3547
sS'Engannim'
p3527
I1947
sS'pursued'
p3528
I3549
sS'bough'
p3529
I3550
sS'therewith'
p3530
I785
sS'able'
p3531
I3552
sS'Kish'
p3532
I3553
sS'battles'
p3533
I3554
sS'outward'
p3534
I3555
sS'sprinkled'
p3535
I3556
sS'which'
p3536
I3558
sS'provoked'
p3537
I3559
sS'gavest'
p3538
I3560
sS'divers'
p3539
I3561
sS'regard'
p3540
I1976
sS'unless'
p3541
I3563
sS'knees'
p3542
I2669
sS'reigneth'
p3543
I3565
sS'Whither'
p3544
I3566
sS'who'
p3545
I3567
sS'Ibhar'
p3546
I3568
sS'thorns'
p3547
I3569
sS'vengeance'
p3548
I3570
sS'eight'
p3549
I3571
sS'fountains'
p3550
I3995
sS'tall'
p3551
I3573
sS'fortieth'
p3552
I3575
sS'Abraham'
p3553
I3576
sS'expired'
p3554
I3577
sS'why'
p3555
I3578
sS'Gaash'
p3556
I3237
sS'24'
p3557
I2329
sS'camest'
p3558
I3580
sS'wherewith'
p3559
I3581
sS'visiting'
p3560
I2672
sS'request'
p3561
I65
sS'disease'
p3562
I1093
sS'counted'
p3563
I3324
sS'High'
p3564
I983
sS'Namely'
p3565
I3587
sS'lamented'
p3566
I3588
sS'Jokshan'
p3567
I3589
sS'wounded'
p3568
I1013
sS'Jehu'
p3569
I3591
sS'Jezer'
p3570
I3592
sS'Mareshah'
p3571
I3593
sS'travailed'
p3572
I2915
sS'fleece'
p3573
I3595
sS'Lehi'
p3574
I3596
sS'tidings'
p3575
I1070
sS'Jediael'
p3576
I3598
sS'bring'
p3577
I3599
sS'compasseth'
p3578
I3327
sS'betwixt'
p3579
I3134
sS'rebuke'
p3580
I1106
sS'utter'
p3581
I3602
sS'fear'
p3582
I3603
sS'brink'
p3583
I1124
sS'handmaid'
p3584
I3605
sS'principal'
p3585
I1128
sS'Shur'
p3586
I3607
sS'knowledge'
p3587
I3608
sS'('
p3588
I3609
sS'Gerizim'
p3589
I3610
sS'should'
p3590
I3611
sS'prolong'
p3591
I3612
sS'bases'
p3592
I55
sS'tribulation'
p3593
I1195
sS'attained'
p3594
I1208
sS'thousands'
p3595
I3616
sS'prophets'
p3596
I3617
sS'righteousness'
p3597
I3618
sS'move'
p3598
I3331
sS'handle'
p3599
I3619
sS'bonds'
p3600
I2824
sS'beat'
p3601
I2607
sS'succeeded'
p3602
I3508
sS'Canaanites'
p3603
I3623
sS'Zidonians'
p3604
I2801
sS'bear'
p3605
I3625
sS'Keep'
p3606
I3626
sS'beam'
p3607
I45
sS'ones'
p3608
I1289
sS'words'
p3609
I3629
sS'drawn'
p3610
I3630
sS'THE'
p3611
I3631
sS'snuffdishes'
p3612
I3632
sS'ascended'
p3613
I3633
sS'dwellings'
p3614
I3634
sS'princes'
p3615
I4009
sS'quiet'
p3616
I3636
sS'gray'
p3617
I1335
sS'Because'
p3618
I3638
sS'places'
p3619
I4010
sS'ended'
p3620
I1308
sS'Mattaniah'
p3621
I3641
sS'married'
p3622
I3642
sS'Enan'
p3623
I3643
sS'suburbs'
p3624
I3979
sS'delighted'
p3625
I3644
sS'whether'
p3626
I4011
sS'maidservant'
p3627
I2878
sS'Bilhan'
p3628
I3035
sS'she'
p3629
I3647
sS'swear'
p3630
I3955
sS'ministered'
p3631
I3648
sS'catch'
p3632
I4025
sS'filleted'
p3633
I3649
sS'Gathrimmon'
p3634
I3650
sS'generations'
p3635
I3651
sS'view'
p3636
I1127
sS'spotted'
p3637
I3653
sS'trode'
p3638
I3083
sS'Rehabiah'
p3639
I3656
sS'respect'
p3640
I3720
sS'Achish'
p3641
I1481
sS'powder'
p3642
I3658
sS'hallow'
p3643
I3660
sS'Massah'
p3644
I3661
sS'dungeon'
p3645
I3662
sS'Meshelemiah'
p3646
I3663
sS'Agag'
p3647
I3664
sS'placed'
p3648
I4016
sS'pattern'
p3649
I3666
sS'southward'
p3650
I3667
sS'cruel'
p3651
I4017
sS'worship'
p3652
I3670
sS'written'
p3653
I3671
sS'worshippers'
p3654
I2499
sS'closed'
p3655
I3673
sS'boughs'
p3656
I1435
sS'bramble'
p3657
I1618
sS'kidneys'
p3658
I3676
sS'tent'
p3659
I1630
sS'obeisance'
p3660
I3678
sS'Ner'
p3661
I3036
sS'Asaiah'
p3662
I1643
sS'cedars'
p3663
I3681
sS'plenteous'
p3664
I3682
sS'joy'
p3665
I3683
sS'Zeeb'
p3666
I1662
sS'Dinah'
p3667
I3685
sS'deliver'
p3668
I3686
sS'revived'
p3669
I3687
sS'spared'
p3670
I839
sS'rinsed'
p3671
I3689
sS'spoil'
p3672
I2191
sS'Gideon'
p3673
I3031
sS'garden'
p3674
I3110
sS'chiefest'
p3675
I1270
sS'temples'
p3676
I3693
sS'grass'
p3677
I1994
sS'asunder'
p3678
I3695
sS'Shema'
p3679
I1750
sS'Othniel'
p3680
I3697
sS'thence'
p3681
I3348
sS'minds'
p3682
I3698
sS'rams'
p3683
I3699
sS'fulfilled'
p3684
I3700
sS'chosen'
p3685
I3701
sS'Ahio'
p3686
I3702
sS'knops'
p3687
I3703
sS'passing'
p3688
I1599
sS'estimation'
p3689
I3705
sS'glorious'
p3690
I3706
sS'wear'
p3691
I3707
sS'Simeon'
p3692
I3708
sS'Would'
p3693
I3709
sS'bearing'
p3694
I4026
sS'wall'
p3695
I3711
sS'shewed'
p3696
I3353
sS'pottage'
p3697
I3713
sS'walk'
p3698
I3714
sS'running'
p3699
I2628
sS'<unknown>'
p3700
I3716
sS'javelin'
p3701
I3717
sS'beguiled'
p3702
I3718
sS'laugh'
p3703
I1871
sS'kings'
p3704
I1879
sS'Moreover'
p3705
I2941
sS'accursed'
p3706
I1894
sS'unclean'
p3707
I3722
sS'turneth'
p3708
I1906
sS'provinces'
p3709
I3724
sS'tread'
p3710
I3725
sS'acts'
p3711
I3726
sS'Get'
p3712
I3727
sS'Lodebar'
p3713
I3728
sS'Ammishaddai'
p3714
I3729
sS'statute'
p3715
I3579
sS'Siddim'
p3716
I2005
sS'Araunah'
p3717
I392
sS'Assir'
p3718
I3733
sS'rump'
p3719
I3734
sS'curtain'
p3720
I3735
sS'waste'
p3721
I3736
sS'Makkedah'
p3722
I3737
sS'shoulders'
p3723
I3738
sS'Among'
p3724
I720
sS'Ehud'
p3725
I364
sS'Cainan'
p3726
I1115
sS'Ahimaaz'
p3727
I3742
sS'neighbour'
p3728
I3744
sS'Milcah'
p3729
I3745
sS'Whence'
p3730
I2060
sS'Asahel'
p3731
I3747
sS'Sing'
p3732
I3655
sS'an'
p3733
I3749
sS'present'
p3734
I3750
sS'Nahath'
p3735
I2098
sS'Hanan'
p3736
I2492
sS'garrisons'
p3737
I339
sS'Depart'
p3738
I3754
sS'imagination'
p3739
I2012
sS'fearful'
p3740
I804
sS'coals'
p3741
I2124
sS'means'
p3742
I3620
sS'appearance'
p3743
I3758
sS'Number'
p3744
I3759
sS'value'
p3745
I1271
sS'priesthood'
p3746
I3761
sS'harden'
p3747
I2140
sS'Yea'
p3748
I3763
sS'distress'
p3749
I3852
sS'Ramoth'
p3750
I3764
sS'Bethlehem'
p3751
I3765
sS'scatter'
p3752
I3265
sS'promoted'
p3753
I2455
sS'Gilboa'
p3754
I3768
sS'happened'
p3755
I3769
sS'plead'
p3756
I3148
sS'at'
p3757
I2016
sS'Menahem'
p3758
I1766
sS'Jeshaiah'
p3759
I3773
sS'Samlah'
p3760
I3774
sS'ripe'
p3761
I3775
sS'thus'
p3762
I3776
sS'Esau'
p3763
I3777
sS'helped'
p3764
I2241
sS'incense'
p3765
I3779
sS'adultery'
p3766
I3780
sS'hearted'
p3767
I3782
sS'lambs'
p3768
I2263
sS'Seraiah'
p3769
I3784
sS'whore'
p3770
I3786
sS'Elijah'
p3771
I3527
sS'Return'
p3772
I3788
sS'servants'
p3773
I3261
sS'Hanoch'
p3774
I3790
sS')'
p3775
I3791
sS'vintage'
p3776
I3299
sS'began'
p3777
I3793
sS'valour'
p3778
I3794
sS'begat'
p3779
I3795
sS'Rehob'
p3780
I978
sS'merciful'
p3781
I3797
sS'flour'
p3782
I3798
sS'shovels'
p3783
I1884
sS'twelfth'
p3784
I3799
sS'longed'
p3785
I3800
sS'firmament'
p3786
I2386
sS'enchantments'
p3787
I3802
sS'sayest'
p3788
I2755
sS'flesh'
p3789
I3839
sS'Prophet'
p3790
I3804
sS'conceived'
p3791
I2421
sS'convocation'
p3792
I2423
sS'oliveyards'
p3793
I3807
sS'Merab'
p3794
I440
sS'Haste'
p3795
I3809
sS'Howbeit'
p3796
I3810
sS'taste'
p3797
I3731
sS'discouraged'
p3798
I1708
sS'fierce'
p3799
I1202
sS'lieth'
p3800
I3813
sS'colts'
p3801
I2156
sS'Anak'
p3802
I3815
sS'Carmel'
p3803
I1160
sS'keep'
p3804
I3453
sS'numbered'
p3805
I3818
sS'planted'
p3806
I3613
sS'off'
p3807
I3820
sS'Gezer'
p3808
I3821
sS'nevertheless'
p3809
I3822
sS'afar'
p3810
I2710
sS'colour'
p3811
I3824
sS'Shall'
p3812
I4047
sS'stablish'
p3813
I3785
sS'dieth'
p3814
I3827
sS'entering'
p3815
I3828
sS'tithes'
p3816
I3829
sS'thought'
p3817
I3830
sS'exceedingly'
p3818
I3831
sS'hearkened'
p3819
I2544
sS'Nobah'
p3820
I3149
sS'Have'
p3821
I3833
sS'Amram'
p3822
I3074
sS'builded'
p3823
I3835
sS'lest'
p3824
I3836
sS'restore'
p3825
I3837
sS'cried'
p3826
I3838
sS'less'
p3827
I236
sS'Jeroham'
p3828
I3840
sS'Deliver'
p3829
I4050
sS'Uriah'
p3830
I3842
sS'flies'
p3831
I3843
sS'Amalekites'
p3832
I3844
sS'Ahinoam'
p3833
I3845
sS'palm'
p3834
I3846
sS'Canaanite'
p3835
I3847
sS'Jahaz'
p3836
I4071
sS'rooms'
p3837
I3848
sS'Tyre'
p3838
I3849
sS'purified'
p3839
I3850
sS'Else'
p3840
I4051
sS'dost'
p3841
I2678
sS'afflicted'
p3842
I2681
sS'Be'
p3843
I2686
sS'provision'
p3844
I1345
sS'drive'
p3845
I1555
sS'fled'
p3846
I3856
sS'drew'
p3847
I3857
sS'vail'
p3848
I3858
sS'add'
p3849
I3859
sS'book'
p3850
I4052
sS'mitre'
p3851
I2750
sS'earnestly'
p3852
I3862
sS'Sennacherib'
p3853
I815
sS'By'
p3854
I3864
sS'ought'
p3855
I3865
sS'raven'
p3856
I3866
sS'increased'
p3857
I3867
sS'Thebez'
p3858
I3868
sS'Salah'
p3859
I3869
sS'Gibbethon'
p3860
I3870
sS'crushed'
p3861
I2816
sS'heathen'
p3862
I3872
sS'knop'
p3863
I3873
sS'Belial'
p3864
I3874
sS'cedar'
p3865
I2835
sS'know'
p3866
I3876
sS'burden'
p3867
I3877
sS'goings'
p3868
I3878
sS'earthen'
p3869
I3879
sS'Whether'
p3870
I3621
sS'separation'
p3871
I3669
sS'like'
p3872
I3881
sS'lost'
p3873
I3882
sS'ring'
p3874
I1447
sS'perpetual'
p3875
I3883
sS'riddle'
p3876
I2314
sS'Eshtaol'
p3877
I2918
sS'Gamaliel'
p3878
I2929
sS'heed'
p3879
I3888
sS'overtake'
p3880
I3447
sS'become'
p3881
I3889
sS'Phinehas'
p3882
I30
sS'works'
p3883
I3891
sS'firstfruits'
p3884
I3892
sS'wonders'
p3885
I3893
sS'virginity'
p3886
I1428
sS'shed'
p3887
I3895
sS'because'
p3888
I3896
sS'clusters'
p3889
I3897
sS'feast'
p3890
I3898
sS'belonged'
p3891
I3899
sS'thief'
p3892
I3900
sS'hail'
p3893
I2998
sS'hair'
p3894
I3902
sS'Debir'
p3895
I2186
sS'almonds'
p3896
I3904
sS'deliverance'
p3897
I3905
sS'Zabdi'
p3898
I3906
sS'home'
p3899
I3907
sS'Jonathan'
p3900
I3908
sS'Shallum'
p3901
I3909
sS'Bashan'
p3902
I3910
sS'scales'
p3903
I2857
sS'Heman'
p3904
I3065
sS'Tabor'
p3905
I2731
sS'broad'
p3906
I3914
sS'Taanach'
p3907
I3915
sS'lean'
p3908
I3916
sS'thank'
p3909
I2559
sS'Shilonite'
p3910
I3089
sS'leap'
p3911
I3919
sS'copulation'
p3912
I3920
sS'Jeremoth'
p3913
I3115
sS'earrings'
p3914
I3922
sS'digged'
p3915
I3741
sS'?'
p3916
I3131
sS'hinder'
p3917
I3925
sS'Ammonites'
p3918
I3926
sS'blowing'
p3919
I3146
sS'murderer'
p3920
I3928
sS'obey'
p3921
I3929
sS'Eden'
p3922
I3930
sS'Sanctify'
p3923
I3159
sS'rock'
p3924
I3932
sS'Up'
p3925
I3933
sS'Elizaphan'
p3926
I3934
sS'Ur'
p3927
I3935
sS'recompensed'
p3928
I726
sS'Hazor'
p3929
I3937
sS'although'
p3930
I3938
sS'worthy'
p3931
I3939
sS'posterity'
p3932
I3940
sS'Eder'
p3933
I337
sS'adversary'
p3934
I3228
sS'Azariah'
p3935
I3943
sS'refuge'
p3936
I3944
sS'throne'
p3937
I3945
sS'murmurings'
p3938
I3946
sS'about'
p3939
I3243
sS'boards'
p3940
I1269
sS'Thummim'
p3941
I3949
sS'face'
p3942
I3585
sS'leprous'
p3943
I2247
sS'shoes'
p3944
I3951
sS'urged'
p3945
I3952
sS'slayer'
p3946
I3953
sS'sakes'
p3947
I3954
sS'blessings'
p3948
I2982
sS'Adaiah'
p3949
I3956
sS'dominion'
p3950
I3957
sS'tongue'
p3951
I3958
sS'encamp'
p3952
I3959
sS'seest'
p3953
I2789
sS'owl'
p3954
I3960
sS'millstone'
p3955
I3961
sS'own'
p3956
I3962
sS'letters'
p3957
I3963
sS'shouldest'
p3958
I3347
sS'jubile'
p3959
I3965
sS'Two'
p3960
I3371
sS'Nabal'
p3961
I3967
sS'Achor'
p3962
I3388
sS'footmen'
p3963
I3400
sS'assembled'
p3964
I3969
sS'female'
p3965
I3970
sS'Mushi'
p3966
I4068
sS'Jether'
p3967
I3972
sS'gleaned'
p3968
I3417
sS'forget'
p3969
I2071
sS'Rechab'
p3970
I1712
sS'Philistines'
p3971
I3976
sS'regarded'
p3972
I806
sS'rejoice'
p3973
I3977
sS'houghed'
p3974
I3445
sS'whom'
p3975
I2735
sS'Baasha'
p3976
I3980
sS'tents'
p3977
I3402
sS'Upon'
p3978
I3981
sS'Betharabah'
p3979
I3023
sS'spots'
p3980
I3983
sS'watchman'
p3981
I3137
sS'doing'
p3982
I3985
sS'inner'
p3983
I3986
sS'messenger'
p3984
I3425
sS'ghost'
p3985
I4072
sS'ivory'
p3986
I3531
sS'Jerubbaal'
p3987
I3536
sS'north'
p3988
I3990
sS'Abdon'
p3989
I3991
sS'Zalmunna'
p3990
I3992
sS'believe'
p3991
I2497
sS'Jezreelite'
p3992
I3993
sS'Well'
p3993
I3994
sS'but'
p3994
I3572
sS'plague'
p3995
I3996
sS'Aholibamah'
p3996
I3997
sS'courts'
p3997
I3998
sS'Gileadites'
p3998
I2861
sS'grate'
p3999
I4000
sS'ordinances'
p4000
I4001
sS'ear'
p4001
I4002
sS'Issachar'
p4002
I4003
sS'eat'
p4003
I4004
sS'he'
p4004
I4005
sS'count'
p4005
I4006
sS'Millo'
p4006
I3405
sS'leper'
p4007
I3557
sS'wise'
p4008
I4008
sS'Chushanrishathaim'
p4009
I3635
sS'glory'
p4010
I3639
sS'Pirathonite'
p4011
I3645
sS'smooth'
p4012
I4012
sS'flieth'
p4013
I4013
sS'Harosheth'
p4014
I3659
sS'Hebron'
p4015
I4015
sS'record'
p4016
I3665
sS'carriage'
p4017
I3668
sS'wist'
p4018
I4018
sS'Benaiah'
p4019
I4019
sS'Ephah'
p4020
I4020
sS'cake'
p4021
I4021
sS'piece'
p4022
I4022
sS'signet'
p4023
I4023
sS'Jesse'
p4024
I4024
sS'Ophrah'
p4025
I3429
sS'diligently'
p4026
I3710
sS'bewail'
p4027
I4027
sS'Jehoahaz'
p4028
I2009
sS'devise'
p4029
I4029
sS'Joram'
p4030
I4030
sS'Shebna'
p4031
I3743
sS'dearth'
p4032
I4032
sS'Barzillai'
p4033
I4033
sS'inn'
p4034
I4034
sS'dyed'
p4035
I2061
sS'goodness'
p4036
I4036
sS'our'
p4037
I3410
sS'Sheshan'
p4038
I3781
sS'kissed'
p4039
I4038
sS'pit'
p4040
I4039
sS'Arphaxad'
p4041
I4040
sS'Sheshai'
p4042
I4041
sS'deeper'
p4043
I4042
sS'Iddo'
p4044
I4043
sS'quails'
p4045
I4044
sS'conspired'
p4046
I4045
sS'spit'
p4047
I4046
sS'didst'
p4048
I3825
sS'Manahath'
p4049
I4048
sS'dressed'
p4050
I4049
sS'oak'
p4051
I3841
sS'wander'
p4052
I3413
sS'other'
p4053
I3860
sS'Know'
p4054
I4053
sS'branch'
p4055
I2999
sS'Pekahiah'
p4056
I4055
sS'behold'
p4057
I4056
sS'wing'
p4058
I4057
sS'proclaim'
p4059
I3411
sS'rebelled'
p4060
I4059
sS'uttermost'
p4061
I4060
sS'Hepher'
p4062
I1420
sS'Zibeon'
p4063
I4062
sS'oppression'
p4064
I4063
sS'stay'
p4065
I4064
sS'April'
p4066
I3950
sS'chance'
p4067
I4066
sS'Jachin'
p4068
I4067
sS'Mikloth'
p4069
I3971
sS'Neariah'
p4070
I4069
sS'friends'
p4071
I4070
sS'Jarmuth'
p4072
I3884
sS'opened'
p4073
I1382
sS'appoint'
p4074
I3987
sS'stirred'
p4075
I4073
sS'pestilence'
p4076
I4074
sS'coupling'
p4077
I4075
sS'Manassites'
p4078
I4076
sS'Jeroboam'
p4079
I4077
sS'Urijah'
p4080
I4078
sS'baker'
p4081
I4079
sS'Thus'
p4082
I4080
sS'chapiters'
p4083
I4035
sS'Shemiramoth'
p4084
I4083
sS'portion'
p4085
I4084
sS'eateth'
p4086
I4085
sS'baken'
p4087
I4086
sS'searched'
p4088
I4087
sS'understand'
p4089
I2751
sS'Hophni'
p4090
I4089
sS'baked'
p4091
I4090
sS'abhor'
p4092
I4082
sS'Dathan'
p4093
I263
sS'jawbone'
p4094
I4093
s.