(dp0
S'Fame,'
p1
I0
sS'Appear'
p2
I1
sS'pardon'
p3
I2
sS'four'
p4
I3
sS'hath'
p5
I4
sS'thirst'
p6
I5
sS'appetite'
p7
I6
sS'party,'
p8
I7
sS'up.'
p9
I8
sS'whose'
p10
I9
sS'up,'
p11
I10
sS'Lead'
p12
I11
sS'common,'
p13
I12
sS'lord'
p14
I13
sS'favours'
p15
I1536
sS'every'
p16
I16
sS'cowardly.'
p17
I17
sS'bringing'
p18
I18
sS"we'll"
p19
I19
sS'prize'
p20
I20
sS'sounds,'
p21
I21
sS'beholding,'
p22
I22
sS'me,'
p23
I24
sS'equal.'
p24
I25
sS'likely'
p25
I26
sS'valiant'
p26
I27
sS'others,'
p27
I28
sS'me;'
p28
I30
sS'even'
p29
I31
sS'established'
p30
I32
sS"ne'er"
p31
I33
sS'nature,'
p32
I34
sS'thunder'
p33
I35
sS'Whiles'
p34
I36
sS'report.'
p35
I37
sS'rest,'
p36
I38
sS'ever'
p37
I39
sS"Ye're"
p38
I244
sS'fathers,'
p39
I41
sS'men'
p40
I42
sS'fronts'
p41
I43
sS'faults,'
p42
I44
sS'herd'
p43
I45
sS'met'
p44
I46
sS'leader,'
p45
I47
sS"Is't"
p46
I48
sS'finger,'
p47
I49
sS'war?'
p48
I50
sS'Rather'
p49
I51
sS'gentleman,'
p50
I52
sS'Three'
p51
I53
sS'honours,'
p52
I1428
sS'brought'
p53
I55
sS'fame.'
p54
I56
sS'spoke'
p55
I57
sS'would'
p56
I58
sS'army'
p57
I59
sS'arms'
p58
I60
sS"press'd"
p59
I61
sS'call'
p60
I62
sS'strike'
p61
I63
sS'tell'
p62
I64
sS"'Though"
p63
I65
sS'wars'
p64
I66
sS'hurt'
p65
I67
sS'off!'
p66
I68
sS'breaths'
p67
I69
sS'excellent'
p68
I70
sS'midst'
p69
I71
sS'mirth.'
p70
I72
sS'off,'
p71
I73
sS'must'
p72
I74
sS'me'
p73
I75
sS'wore'
p74
I76
sS'work'
p75
I77
sS'ere'
p76
I78
sS'Corioli;'
p77
I79
sS'my'
p78
I80
sS'la,'
p79
I81
sS'constant.'
p80
I82
sS'give'
p81
I83
sS'malign'
p82
I84
sS'Holding'
p83
I539
sS'keep'
p84
I1548
sS'end'
p85
I87
sS'turn'
p86
I88
sS'provide'
p87
I89
sS'faults'
p88
I90
sS'youth.'
p89
I91
sS'answer'
p90
I92
sS'stiff?'
p91
I311
sS"He'll"
p92
I94
sS'A'
p93
I95
sS'both,'
p94
I96
sS'after'
p95
I97
sS'Will'
p96
I98
sS'modest'
p97
I99
sS'away,'
p98
I100
sS'lay'
p99
I101
sS'sufferance'
p100
I102
sS'All'
p101
I103
sS'ho!'
p102
I104
sS'revolt'
p103
I105
sS'fault,'
p104
I106
sS'haste'
p105
I107
sS'worst'
p106
I943
sS'Trust'
p107
I109
sS'wind'
p108
I110
sS'senators'
p109
I111
sS'brain;'
p110
I619
sS'over'
p111
I113
sS'muniments'
p112
I1254
sS'digest'
p113
I115
sS'before'
p114
I116
sS'His'
p115
I117
sS'then.'
p116
I118
sS'fit'
p117
I119
sS"What's"
p118
I120
sS'Here'
p119
I121
sS'better'
p120
I122
sS'then?'
p121
I123
sS'man-child'
p122
I124
sS'Him'
p123
I125
sS'belly'
p124
I320
sS'then'
p125
I127
sS'them'
p126
I775
sS'drachm!'
p127
I129
sS'thee'
p128
I130
sS'break'
p129
I131
sS'they'
p130
I132
sS'but,'
p131
I338
sS'meat'
p132
I135
sS'outdares'
p133
I136
sS'each'
p134
I137
sS'side'
p135
I138
sS'unactive,'
p136
I139
sS'Confess'
p137
I140
sS'fortnight'
p138
I141
sS'borne'
p139
I142
sS'is;'
p140
I143
sS'fellows'
p141
I144
sS'content'
p142
I145
sS"'em!"
p143
I146
sS'is.'
p144
I147
sS'is,'
p145
I148
sS'got'
p146
I149
sS'forth'
p147
I150
sS'VALERIA'
p148
I151
sS'revenge'
p149
I152
sS'bestow'
p150
I153
sS'Rome!'
p151
I154
sS'marriages;'
p152
I155
sS'Rome,'
p153
I156
sS'days'
p154
I157
sS'Rome.'
p155
I158
sS"know't."
p156
I159
sS"know't,"
p157
I160
sS'speedy'
p158
I161
sS'fort,'
p159
I162
sS'fellow!'
p160
I163
sS'solemness'
p161
I164
sS'enraged'
p162
I165
sS'already'
p163
I166
sS'Fool-hardiness;'
p164
I167
sS'too.'
p165
I168
sS'wast'
p166
I170
sS'hearing'
p167
I171
sS'embracements'
p168
I1562
sS'senate;'
p169
I173
sS'power,'
p170
I174
sS'wants,'
p171
I175
sS'their'
p172
I1563
sS'too'
p173
I177
sS'cupboarding'
p174
I178
sS'dogs'
p175
I179
sS'toe'
p176
I180
sS'daughter,'
p177
I181
sS'body,--'
p178
I182
sS'Should'
p179
I957
sS'leg,'
p180
I184
sS'Consider'
p181
I185
sS'body.'
p182
I186
sS'night.'
p183
I187
sS'second'
p184
I188
sS'preparation'
p185
I189
sS'idle'
p186
I190
sS'Come,'
p187
I191
sS'well;'
p188
I192
sS'mind'
p189
I193
sS'yourselves?'
p190
I194
sS'talking'
p191
I195
sS'well.'
p192
I196
sS'Come;'
p193
I197
sS'seen'
p194
I198
sS'seem'
p195
I199
sS'yourselves.'
p196
I200
sS'dozen'
p197
I201
sS'poorest,'
p198
I202
sS'forced'
p199
I1261
sS'wholesome'
p200
I204
sS'do,'
p201
I205
sS'thoroughly'
p202
I206
sS"Let's"
p203
I207
sS'They'
p204
I208
sS'Verily,'
p205
I209
sS'swims'
p206
I210
sS'What,'
p207
I211
sS'shall'
p208
I212
sS'object'
p209
I213
sS'school-master.'
p210
I214
sS'corn;'
p211
I215
sS'letter'
p212
I216
sS'fast,'
p213
I217
sS'grave'
p214
I218
sS'instruct,'
p215
I219
sS'dog'
p216
I220
sS'accounted'
p217
I221
sS'came'
p218
I222
sS'incorporate'
p219
I223
sS'fabric,'
p220
I224
sS'hunger'
p221
I225
sS'retire'
p222
I226
sS'plagues'
p223
I227
sS'mammocked'
p224
I228
sS'cannot,'
p225
I229
sS'hither.'
p226
I230
sS'Velutus,'
p227
I231
sS'rich'
p228
I232
sS'run,'
p229
I233
sS'do'
p230
I234
sS'foremost'
p231
I235
sS'report'
p232
I236
sS'aught'
p233
I1572
sS'about,'
p234
I238
sS'them?'
p235
I239
sS'pale--they'
p236
I240
sS'men,'
p237
I241
sS'fitly'
p238
I242
sS'them!'
p239
I243
sS'told'
p240
I40
sS'surfeits'
p241
I245
sS'ears'
p242
I246
sS'elders.'
p243
I247
sS'fair'
p244
I248
sS"abhorr'd"
p245
I249
sS'depends'
p246
I250
sS'market-place;'
p247
I251
sS'vented'
p248
I252
sS'an-hungry;'
p249
I253
sS'best'
p250
I254
sS'pricking'
p251
I255
sS'said'
p252
I256
sS'face.'
p253
I257
sS'taunts.'
p254
I258
sS'BRUTUS'
p255
I259
sS"there's"
p256
I260
sS"Clapp'd"
p257
I261
sS'shields'
p258
I262
sS'hatching,'
p259
I263
sS'we'
p260
I264
sS'never'
p261
I265
sS'weal'
p262
I266
sS'bows,'
p263
I267
sS'staves'
p264
I268
sS"prevail'd"
p265
I269
sS'Soldier'
p266
I270
sS'Farewell.'
p267
I796
sS'here'
p268
I272
sS'news'
p269
I273
sS'disdain'
p270
I274
sS'country'
p271
I275
sS'strange'
p272
I1705
sS'against'
p273
I276
sS'Bring'
p274
I277
sS'freelier'
p275
I278
sS'Advance,'
p276
I279
sS'faces'
p277
I280
sS'speak'
p278
I281
sS'now,'
p279
I282
sS'rakes'
p280
I974
sS'puts'
p281
I284
sS'Plaster'
p282
I285
sS"He's"
p283
I651
sS'three'
p284
I287
sS'been'
p285
I288
sS'much'
p286
I289
sS'affrights'
p287
I290
sS'entered'
p288
I291
sS'threw'
p289
I292
sS'spit'
p290
I293
sS'nobility,'
p291
I294
sS'hour,'
p292
I295
sS'lift'
p293
I296
sS'east'
p294
I297
sS'lesser'
p295
I299
sS'faith.'
p296
I300
sS"to't"
p297
I134
sS'it'
p298
I302
sS'piercing'
p299
I303
sS'enters;'
p300
I304
sS'jest'
p301
I305
sS'in'
p302
I306
sS'Mend'
p303
I307
sS'placeth'
p304
I308
sS'Tell'
p305
I309
sS'meet,'
p306
I310
sS'if'
p307
I93
sS'grown'
p308
I312
sS'confirmed'
p309
I313
sS'heart,'
p310
I314
sS'perform'
p311
I315
sS'things'
p312
I316
sS'make'
p313
I317
sS'forehead'
p314
I318
sS'Did'
p315
I319
sS'inventory'
p316
I126
sS'big'
p317
I321
sS'several'
p318
I322
sS'wheel'
p319
I323
sS'hang'
p320
I324
sS'hand'
p321
I325
sS'bear,'
p322
I1583
sS'made,'
p323
I326
sS"i'"
p324
I327
sS'scabs?'
p325
I328
sS'cormorant'
p326
I329
sS'thy'
p327
I330
sS'ope'
p328
I331
sS'vulgar'
p329
I1561
sS'greatest'
p330
I332
sS'mother'
p331
I333
sS'hearts'
p332
I334
sS'the'
p333
I335
sS'gods'
p334
I336
sS'yet'
p335
I337
sS'had'
p336
I339
sS'complainings;'
p337
I340
sS'save'
p338
I749
sS'ye!'
p339
I342
sS'bands'
p340
I343
sS'Half'
p341
I663
sS'caps'
p342
I345
sS'speaks!'
p343
I346
sS'rebellion,'
p344
I347
sS'shadow'
p345
I348
sS'opinion,'
p346
I349
sS"ha'"
p347
I350
sS'prating'
p348
I351
sS'offices'
p349
I352
sS'Are'
p350
I353
sS'Further'
p351
I354
sS'Ithaca'
p352
I355
sS'country?'
p353
I356
sS'Now,'
p354
I357
sS'old'
p355
I358
sS'people'
p356
I359
sS'flatter'
p357
I360
sS'born'
p358
I361
sS'clubs'
p359
I362
sS'dear'
p360
I363
sS'shake,'
p361
I364
sS'enemies'
p362
I365
sS'for'
p363
I366
sS'plucked'
p364
I367
sS'foe'
p365
I368
sS'Let'
p366
I369
sS'fob'
p367
I370
sS'He'
p368
I371
sS'sewing'
p369
I1596
sS'bold'
p370
I373
sS'corn'
p371
I374
sS"work's,"
p372
I375
sS'You,'
p373
I985
sS'disdains'
p374
I519
sS'First'
p375
I378
sS'Nay,'
p376
I525
sS'Nay.'
p377
I380
sS'Indeed,'
p378
I381
sS'citizens'
p379
I382
sS'seeking?'
p380
I383
sS'Still'
p381
I384
sS'pays'
p382
I385
sS'Make'
p383
I386
sS'bound'
p384
I387
sS'son'
p385
I388
sS'down'
p386
I389
sS'thankful'
p387
I588
sS'bats'
p388
I391
sS'support'
p389
I392
sS'altitude'
p390
I393
sS'Hang'
p391
I394
sS'fight'
p392
I395
sS'fought'
p393
I396
sS'way'
p394
I397
sS'greatness'
p395
I398
sS'factions'
p396
I399
sS'was'
p397
I400
sS'war'
p398
I401
sS'so!'
p399
I402
sS'interims'
p400
I403
sS'abundantly'
p401
I1305
sS'so,'
p402
I405
sS'misery,'
p403
I994
sS'hear'
p404
I406
sS'true'
p405
I407
sS'deliberate,'
p406
I408
sS'voluptuously'
p407
I409
sS'Patience'
p408
I471
sS'cobbled'
p409
I411
sS'disgrace'
p410
I747
sS'sticks'
p411
I413
sS'discovery.'
p412
I414
sS'up'
p413
I1347
sS'left,'
p414
I415
sS'agents,'
p415
I780
sS'physical'
p416
I417
sS'no'
p417
I418
sS'when'
p418
I419
sS"look'd"
p419
I420
sS'clubs?'
p420
I421
sS"'t"
p421
I422
sS'intend'
p422
I837
sS'Summon'
p423
I847
sS'musty'
p424
I965
sS'fell'
p425
I426
sS'valiant.'
p426
I427
sS'cambric'
p427
I428
sS'ours.'
p428
I429
sS'died'
p429
I430
sS'promise.'
p430
I431
sS'Win'
p431
I432
sS'daily'
p432
I690
sS'Second'
p433
I434
sS"flay'd?"
p434
I435
sS'time'
p435
I916
sS"'O"
p436
I437
sS'covetous.'
p437
I438
sS'parcels'
p438
I439
sS'chain'
p439
I440
sS'rob'
p440
I441
sS'relieve'
p441
I442
sS'souls'
p442
I443
sS'brow!'
p443
I444
sS'themes'
p444
I445
sS'mile'
p445
I446
sS'battle'
p446
I447
sS'Bold'
p447
I448
sS'leanness'
p448
I449
sS'wars.'
p449
I450
sS'charge'
p450
I451
sS'word,'
p451
I1612
sS'Bury'
p452
I453
sS'COMINIUS'
p453
I454
sS'superfluity,'
p454
I455
sS'superfluity.'
p455
I456
sS'choice'
p456
I457
sS'doit,'
p457
I458
sS'forth;'
p458
I459
sS'brows'
p459
I1044
sS'minute'
p460
I461
sS"soul's"
p461
I462
sS'poor.'
p462
I463
sS'did'
p463
I464
sS'die'
p464
I465
sS"bran.'"
p465
I466
sS'leave'
p466
I467
sS'one--'
p467
I468
sS'quick'
p468
I469
sS'edicts'
p469
I470
sS'stands,'
p470
I1092
sS'brave'
p471
I473
sS'says'
p472
I474
sS'be'
p473
I475
sS'Why,'
p474
I476
sS'appetite,'
p475
I477
sS'hair,'
p476
I478
sS'aims,'
p477
I479
sS'surplus,'
p478
I480
sS'curse'
p479
I481
sS'stands'
p480
I482
sS'daily,'
p481
I484
sS'Hear'
p482
I485
sS'goes'
p483
I486
sS'oaks'
p484
I487
sS'See,'
p485
I488
sS'stitchery;'
p486
I489
sS'bale.'
p487
I490
sS'true,'
p488
I1619
sS'honour'
p489
I492
sS'say!'
p490
I493
sS'alone'
p491
I494
sS'along'
p492
I495
sS'say,'
p493
I496
sS'My'
p494
I497
sS'change'
p495
I498
sS'Resolved.'
p496
I499
sS'here;'
p497
I500
sS'here?'
p498
I501
sS'tire'
p499
I1620
sS'oak.'
p500
I503
sS'geese,'
p501
I504
sS'curs,'
p502
I505
sS'of--Boils'
p503
I506
sS"burn'd"
p504
I507
sS'Irons'
p505
I508
sS'hither'
p506
I509
sS'love'
p507
I510
sS'myself.'
p508
I511
sS'Marcius'
p509
I512
sS'When'
p510
I513
sS'bloody'
p511
I514
sS'sincerely'
p512
I515
sS"seem'd,"
p513
I516
sS'retires'
p514
I517
sS'crammed'
p515
I518
sS'harvest-man'
p516
I377
sS'little--'
p517
I520
sS'prove'
p518
I521
sS'tender-bodied'
p519
I522
sS'visit'
p520
I523
sS'live'
p521
I524
sS'trophy'
p522
I379
sS'These'
p523
I526
sS'virtue'
p524
I527
sS'stored.'
p525
I528
sS'blood!'
p526
I529
sS"on't;"
p527
I530
sS'blood,'
p528
I531
sS'given'
p529
I532
sS'troop?'
p530
I533
sS'wives,'
p531
I534
sS'can'
p532
I535
sS'making'
p533
I536
sS'worthiest'
p534
I537
sS'heart'
p535
I538
sS'want'
p536
I85
sS'Lartius'
p537
I540
sS'heard'
p538
I541
sS'Noble'
p539
I542
sS'garland.'
p540
I1498
sS'Who'
p541
I544
sS'shall,'
p542
I1844
sS"'t."
p543
I545
sS'till'
p544
I546
sS'sworn'
p545
I547
sS'issued,'
p546
I548
sS'may'
p547
I549
sS'hear,'
p548
I550
sS'lord.'
p549
I551
sS'man'
p550
I552
sS'natural'
p551
I553
sS'speak.'
p552
I554
sS'enemies.'
p553
I555
sS'tale'
p554
I556
sS'so'
p555
I557
sS"on't!"
p556
I558
sS'no,'
p557
I559
sS'no.'
p558
I560
sS'words'
p559
I1636
sS'indeed'
p560
I562
sS'counsellor'
p561
I563
sS'view;'
p562
I564
sS'course'
p563
I565
sS'comeliness'
p564
I566
sS'lovelier'
p565
I567
sS'hence,'
p566
I568
sS'apes'
p567
I569
sS'thank'
p568
I570
sS"he's"
p569
I571
sS'each,'
p570
I572
sS"opposers'"
p571
I573
sS'Worthy'
p572
I574
sS'heels,'
p573
I575
sS'petition'
p574
I576
sS'conveying'
p575
I577
sS'Beseech'
p576
I578
sS'within'
p577
I579
sS'Rome'
p578
I580
sS'She'
p579
I581
sS'half'
p580
I582
sS'not'
p581
I583
sS'now'
p582
I584
sS'nor'
p583
I585
sS'hereafter.'
p584
I586
sS'name'
p585
I587
sS'lies'
p586
I390
sS'drop'
p587
I589
sS'veins'
p588
I590
sS'surfeit'
p589
I591
sS'fires'
p590
I1068
sS'giddy'
p591
I593
sS'yes,'
p592
I594
sS'Hector,'
p593
I595
sS'increase'
p594
I596
sS'thus,'
p595
I597
sS'thus.'
p596
I598
sS'goes,'
p597
I599
sS'Valeria'
p598
I600
sS'curbs'
p599
I601
sS'fire,'
p600
I602
sS'Either'
p601
I603
sS'wiping,'
p602
I604
sS'Before-time'
p603
I605
sS'cloven'
p604
I606
sS'care'
p605
I607
sS'Being'
p606
I608
sS'honest'
p607
I609
sS'thing'
p608
I610
sS'thine'
p609
I611
sS'place'
p610
I612
sS'envied'
p611
I613
sS'they--'
p612
I614
sS'profess'
p613
I615
sS'think'
p614
I616
sS'first'
p615
I617
sS'Even'
p616
I618
sS'humanely;'
p617
I112
sS'chance'
p618
I1839
sS'There'
p619
I620
sS'yourself'
p620
I621
sS'Till'
p621
I622
sS"mail'd"
p622
I623
sS'generosity,'
p623
I624
sS'Citizen'
p624
I625
sS'carry'
p625
I626
sS'open'
p626
I627
sS'eye,'
p627
I628
sS"'em"
p628
I629
sS'city'
p629
I630
sS'little'
p630
I631
sS'driven,'
p631
I632
sS'caught'
p632
I633
sS'Such'
p633
I634
sS'crack,'
p634
I635
sS'friend'
p635
I636
sS'on,'
p636
I637
sS'that'
p637
I638
sS'on;'
p638
I639
sS'Thither'
p639
I640
sS'than'
p640
I641
sS'Tutus'
p641
I642
sS"shorten'd"
p642
I643
sS"'Tis"
p643
I644
sS'folly'
p644
I645
sS'participate,'
p645
I646
sS'venture'
p646
I647
sS'were'
p647
I648
sS"'That"
p648
I410
sS'and'
p649
I649
sS'abhorring.'
p650
I650
sS'Prithee,'
p651
I286
sS'greyhound'
p652
I652
sS'page!'
p653
I653
sS'say'
p654
I654
sS'Call'
p655
I656
sS'true-bred!'
p656
I657
sS'saw'
p657
I658
sS'any'
p658
I659
sS'late?'
p659
I660
sS'aside'
p660
I661
sS'take'
p661
I662
sS'tremble.'
p662
I344
sS'butterfly'
p663
I664
sS'afternoon.'
p664
I665
sS'jewel.'
p665
I666
sS'knee'
p666
I667
sS'envying'
p667
I668
sS'strength,'
p668
I669
sS'especially'
p669
I670
sS'proud'
p670
I671
sS'not;'
p671
I672
sS'slaves'
p672
I673
sS'not,'
p673
I674
sS'not.'
p674
I675
sS'alone,'
p675
I676
sS'Tullus'
p676
I677
sS'shop'
p677
I678
sS'show'
p678
I679
sS'What'
p679
I1034
sS'merit'
p680
I681
sS'honour;'
p681
I682
sS'threshold'
p682
I683
sS"Hector's"
p683
I684
sS'Breathe'
p684
I685
sS'mile!'
p685
I686
sS'We'
p686
I687
sS'gnaw'
p687
I688
sS'gulf'
p688
I689
sS'enough'
p689
I691
sS'verdict?'
p690
I692
sS'only'
p691
I693
sS'entreaties'
p692
I694
sS'mile;'
p693
I695
sS'declines;'
p694
I1847
sS'get'
p695
I696
sS"'tis"
p696
I697
sS'cannot'
p697
I698
sS'honours'
p698
I699
sS'is'
p699
I301
sS'For,'
p700
I1232
sS'beseech'
p701
I700
sS'swords,'
p702
I760
sS'yield'
p703
I701
sS'miles'
p704
I702
sS'friends,'
p705
I703
sS'friends.'
p706
I704
sS'friends!'
p707
I705
sS'where'
p708
I706
sS'Ladders,'
p709
I707
sS'Away,'
p710
I708
sS'seat'
p711
I709
sS'circumvention?'
p712
I710
sS'wonder'
p713
I711
sS'come,'
p714
I712
sS'come.'
p715
I713
sS'earnest,'
p716
I714
sS'That'
p717
I715
sS'basest,'
p718
I716
sS'repeal'
p719
I1841
sS"father's"
p720
I717
sS'behind'
p721
I718
sS'between'
p722
I719
sS"answer'd--"
p723
I720
sS'man,'
p724
I721
sS'Than'
p725
I722
sS'man.'
p726
I723
sS"'head"
p727
I724
sS'Cushions,'
p728
I725
sS'pluck'
p729
I726
sS'spare'
p730
I727
sS'Were'
p731
I728
sS'whereof,'
p732
I729
sS'come'
p733
I730
sS'fought;'
p734
I731
sS'then,'
p735
I732
sS'fliers'
p736
I769
sS'moon,'
p737
I734
sS'many'
p738
I735
sS'moon.'
p739
I736
sS'But,'
p740
I737
sS'pray'
p741
I738
sS'way,'
p742
I739
sS'senator'
p743
I740
sS'exile;'
p744
I741
sS'comes'
p745
I742
sS'Madam,'
p746
I743
sS'Romans,'
p747
I744
sS'dispatch'
p748
I745
sS'Note'
p749
I746
sS'proved'
p750
I412
sS'cranks'
p751
I1630
sS'considering'
p752
I748
sS'sensible'
p753
I843
sS'Caius'
p754
I750
sS'hunt.'
p755
I751
sS"Cato's"
p756
I752
sS'west'
p757
I753
sS'But'
p758
I754
sS'mark'
p759
I755
sS'cared'
p760
I756
sS'sensibly'
p761
I758
sS'TITUS'
p762
I759
sS'minister'
p763
I922
sS'swords!'
p764
I761
sS'Gentlewoman'
p765
I762
sS'former'
p766
I763
sS'those'
p767
I764
sS'impediment.'
p768
I765
sS'sound'
p769
I766
sS"insurrection's"
p770
I767
sS'these'
p771
I768
sS'Give'
p772
I733
sS'successes'
p773
I770
sS'Besides,'
p774
I771
sS'art,'
p775
I772
sS'brow'
p776
I773
sS'person.'
p777
I774
sS'welcome.'
p778
I128
sS'edge.'
p779
I776
sS'Better'
p780
I777
sS'commanded'
p781
I778
sS'catched'
p782
I1803
sS'granted'
p783
I779
sS'discretion,'
p784
I416
sS'food'
p785
I781
sS'Touching'
p786
I782
sS'followers'
p787
I783
sS'I,'
p788
I784
sS'I.'
p789
I785
sS'afflicts'
p790
I786
sS'Say,'
p791
I787
sS"I'"
p792
I789
sS'noble'
p793
I790
sS'I'
p794
I791
sS'assist'
p795
I792
sS'doublets'
p796
I793
sS"bleed'st;"
p797
I794
sS'nobly'
p798
I795
sS'charges'
p799
I797
sS'Is'
p800
I799
sS'It'
p801
I800
sS'In'
p802
I801
sS'very'
p803
I802
sS'shut,'
p804
I803
sS'charged'
p805
I1147
sS'gates'
p806
I805
sS'followed.'
p807
I806
sS'am,'
p808
I807
sS'soft-conscienced'
p809
I1664
sS'being'
p810
I809
sS'MARCIUS'
p811
I810
sS'rest'
p812
I811
sS'shouts'
p813
I812
sS'violent'
p814
I813
sS'kill'
p815
I814
sS"O,'tis"
p816
I1181
sS'blow'
p817
I816
sS'sprang'
p818
I817
sS'warriors,'
p819
I818
sS'senseless'
p820
I819
sS'strange.'
p821
I820
sS'accusations;'
p822
I821
sS'offence'
p823
I822
sS'mow'
p824
I823
sS'action.'
p825
I824
sS'world'
p826
I825
sS'lady'
p827
I826
sS'grim'
p828
I827
sS'fortune'
p829
I828
sS'serves'
p830
I829
sS'benefit'
p831
I830
sS'hares;'
p832
I831
sS'Before'
p833
I832
sS'members;'
p834
I833
sS'drum,'
p835
I834
sS'Since'
p836
I835
sS'members,'
p837
I836
sS"'s"
p838
I423
sS"o'"
p839
I838
sS'noon'
p840
I839
sS'Soft!'
p841
I840
sS'think,'
p842
I841
sS'business'
p843
I842
sS'seconds'
p844
I844
sS'ruth,'
p845
I845
sS'drums'
p846
I846
sS'transported'
p847
I424
sS'throw'
p848
I848
sS'on'
p849
I849
sS'stone'
p850
I850
sS"speak'st"
p851
I851
sS'contagion'
p852
I852
sS'countenance.'
p853
I853
sS'out?'
p854
I854
sS'mutually'
p855
I855
sS'whence'
p856
I856
sS'subdues'
p857
I857
sS'stand'
p858
I858
sS'act'
p859
I859
sS'revenge.'
p860
I860
sS'or'
p861
I861
sS'ladies'
p862
I862
sS'No'
p863
I863
sS'instruments'
p864
I864
sS'vantage.'
p865
I865
sS'mutinous'
p866
I866
sS'parties'
p867
I867
sS'your'
p868
I868
sS'strokes;'
p869
I869
sS'her'
p870
I870
sS'Though'
p871
I871
sS'there'
p872
I872
sS'you.'
p873
I873
sS'you,'
p874
I874
sS'another?'
p875
I875
sS'VIRGILIA'
p876
I876
sS'Whither'
p877
I877
sS'you!'
p878
I878
sS'you?'
p879
I879
sS'you;'
p880
I880
sS'Beneath'
p881
I881
sS'with'
p882
I882
sS'belly,'
p883
I1683
sS'famously,'
p884
I884
sS'he?'
p885
I885
sS'highest!'
p886
I886
sS'Whilst'
p887
I887
sS'he,'
p888
I888
sS'he.'
p889
I889
sS'affection'
p890
I890
sS'gone'
p891
I891
sS"general's"
p892
I892
sS'am'
p893
I893
sS'deep'
p894
I894
sS'an'
p895
I1341
sS'How'
p896
I896
sS'Lets'
p897
I897
sS'together'
p898
I433
sS'hearts,'
p899
I899
sS'Strike'
p900
I900
sS'horse'
p901
I901
sS'fill'
p902
I902
sS'swords'
p903
I903
sS'trumpeter.'
p904
I904
sS'thither'
p905
I905
sS'emulation.'
p906
I906
sS'field'
p907
I907
sS'contemning.'
p908
I908
sS'you'
p909
I909
sS'Lady'
p910
I910
sS'thousand'
p911
I911
sS'At'
p912
I1385
sS'poor'
p913
I913
sS'briefly'
p914
I914
sS'walk,'
p915
I915
sS'teeth'
p916
I436
sS'fool!'
p917
I917
sS"go'st"
p918
I918
sS'dissentious'
p919
I919
sS'sword,'
p920
I920
sS'patricians,'
p921
I921
sS"t'other,"
p922
I298
sS'all'
p923
I923
sS'vile'
p924
I924
sS'lack'
p925
I925
sS"to't?"
p926
I926
sS'Take'
p927
I927
sS'smoking'
p928
I1688
sS'follow'
p929
I928
sS'son;'
p930
I929
sS'children'
p931
I930
sS'son?'
p932
I931
sS"restrain'd,"
p933
I932
sS'to'
p934
I933
sS'present'
p935
I1690
sS'smile'
p936
I936
sS'Jupiter,'
p937
I937
sS'worse'
p938
I938
sS'hailstone'
p939
I939
sS'abundance;'
p940
I940
sS'foxes,'
p941
I941
sS'famish,'
p942
I942
sS'sun.'
p943
I108
sS'rascal,'
p944
I944
sS'fall'
p945
I945
sS'famish?'
p946
I946
sS'wholesome,'
p947
I947
sS'heaven'
p948
I948
sS"'They"
p949
I949
sS'undone'
p950
I950
sS'along.'
p951
I951
sS'small'
p952
I952
sS'answer?'
p953
I953
sS'rats'
p954
I954
sS'ten'
p955
I955
sS'shields.'
p956
I956
sS'toe?'
p957
I183
sS'toe!'
p958
I958
sS'Only'
p959
I959
sS'answer.'
p960
I960
sS'what'
p961
I961
sS'usury,'
p962
I962
sS'him;'
p963
I963
sS'Condemning'
p964
I964
sS'brief'
p965
I425
sS'him.'
p966
I966
sS'him,'
p967
I967
sS'dearth,'
p968
I968
sS'public'
p969
I969
sS'him!'
p970
I970
sS"o'er,"
p971
I971
sS'full'
p972
I972
sS'hours'
p973
I973
sS'strong'
p974
I283
sS'entire,'
p975
I975
sS'encountering,'
p976
I976
sS'soldier'
p977
I977
sS'pick'
p978
I978
sS'Be-mock'
p979
I979
sS'cowardly'
p980
I980
sS'Too'
p981
I981
sS"They'll"
p982
I982
sS'Hail,'
p983
I983
sS'know,'
p984
I984
sS'lady.'
p985
I376
sS'Cominius,'
p986
I986
sS'proceed'
p987
I987
sS'Cominius.'
p988
I988
sS'Corn'
p989
I989
sS"Cominius'"
p990
I990
sS'Romans'
p991
I991
sS'Ransoming'
p992
I992
sS'widens'
p993
I993
sS'husband.'
p994
I1242
sS'bedward!'
p995
I995
sS'rubbing'
p996
I996
sS'more'
p997
I997
sS'fellow'
p998
I1689
sS'knows'
p999
I998
sS'company'
p1000
I999
sS'broke'
p1001
I1000
sS'known'
p1002
I1001
sS'glad'
p1003
I1002
sS'none'
p1004
I1003
sS'hour'
p1005
I1004
sS'Roman,'
p1006
I1005
sS'remain'
p1007
I1006
sS'sent'
p1008
I1402
sS'Aufidius'
p1009
I1008
sS'Your'
p1010
I1009
sS'meaner'
p1011
I1010
sS'forth.'
p1012
I1011
sS'numbers'
p1013
I1012
sS'struck,'
p1014
I1013
sS'needs'
p1015
I1014
sS'bread,'
p1016
I1015
sS'moved,'
p1017
I1016
sS'rather'
p1018
I1017
sS'eat,'
p1019
I1018
sS'Fall'
p1020
I1019
sS'charms'
p1021
I1020
sS'goddess,'
p1022
I1021
sS'state,'
p1023
I1022
sS'blood'
p1024
I1023
sS'surer,'
p1025
I1024
sS'a'
p1026
I1025
sS'Sweet'
p1027
I1026
sS'coal'
p1028
I1027
sS"attain'd"
p1029
I1028
sS"unroof'd"
p1030
I1029
sS"it.'"
p1031
I1030
sS"that's"
p1032
I1031
sS'replied'
p1033
I1032
sS'would.'
p1034
I1033
sS'army.'
p1035
I680
sS'help'
p1036
I1035
sS'senate,'
p1037
I1036
sS'moods.'
p1038
I1321
sS'wall,'
p1039
I1037
sS'held'
p1040
I1038
sS'through'
p1041
I1039
sS'army;'
p1042
I1040
sS'smiling'
p1043
I1041
sS'suffer'
p1044
I1042
sS'already,'
p1045
I1043
sS'Where'
p1046
I460
sS'already.'
p1047
I1045
sS'absence'
p1048
I1046
sS'truth,'
p1049
I757
sS'Corioli'
p1050
I1048
sS'rabble'
p1051
I1049
sS'might'
p1052
I1050
sS'it.'
p1053
I1051
sS'it,'
p1054
I1052
sS'good'
p1055
I1053
sS'return'
p1056
I1054
sS'little.'
p1057
I1055
sS'great;'
p1058
I1056
sS'masters,'
p1059
I1057
sS'ye'
p1060
I1058
sS'it!'
p1061
I1059
sS"'Fore"
p1062
I1060
sS'Ere'
p1063
I1061
sS'it;'
p1064
I1062
sS'always'
p1065
I1063
sS'all,'
p1066
I1064
sS'bless'
p1067
I1065
sS'tear'
p1068
I1066
sS'labour,'
p1069
I1067
sS'found'
p1070
I1069
sS'rise,'
p1071
I1070
sS'another'
p1072
I1071
sS'Slain,'
p1073
I1072
sS'deeds.'
p1074
I1073
sS'beyond'
p1075
I1074
sS'More'
p1076
I1075
sS'since'
p1077
I1076
sS'trusts'
p1078
I1077
sS'issue'
p1079
I1078
sS'trenches?'
p1080
I1079
sS'risen'
p1081
I1080
sS'guess'
p1082
I1081
sS'base'
p1083
I1082
sS'members'
p1084
I1083
sS'put'
p1085
I1084
sS'Opinion'
p1086
I1085
sS'terrible'
p1087
I1087
sS'Unto'
p1088
I1414
sS'feed'
p1089
I1089
sS'stir,'
p1090
I1090
sS'feel'
p1091
I1091
sS'appear,'
p1092
I472
sS"belly's"
p1093
I1093
sS'done'
p1094
I1094
sS'wager'
p1095
I1095
sS'SICINIUS'
p1096
I1096
sS'remember,'
p1097
I1097
sS'gates,'
p1098
I1098
sS'thoughts,'
p1099
I1099
sS'threatening'
p1100
I1100
sS'aim,'
p1101
I1101
sS'hundred'
p1102
I1102
sS'malicious,'
p1103
I1103
sS'first,'
p1104
I1119
sS'relieved'
p1105
I1105
sS'citizens,'
p1106
I1106
sS'citizens.'
p1107
I1107
sS'part'
p1108
I1108
sS'believe'
p1109
I1109
sS'kind'
p1110
I1110
sS'Conjectural'
p1111
I1111
sS'youth'
p1112
I1113
sS'certainties.'
p1113
I1114
sS'lowest,'
p1114
I1115
sS'stale'
p1115
I1116
sS'head,'
p1116
I1117
sS'alike'
p1117
I1118
sS'Speak,'
p1118
I1104
sS'sell'
p1119
I1120
sS'lie'
p1120
I1121
sS'fashion,'
p1121
I1122
sS'officers'
p1122
I1123
sS'wish,'
p1123
I1124
sS'store-house'
p1124
I1283
sS'lip'
p1125
I1126
sS'thence;'
p1126
I1418
sS'With'
p1127
I1128
sS'Go,'
p1128
I1129
sS'play'
p1129
I1130
sS'quoth'
p1130
I1131
sS'Valeria,'
p1131
I1723
sS'Thy'
p1132
I1133
sS'cowards!'
p1133
I1134
sS'cares,'
p1134
I1135
sS'took'
p1135
I1136
sS'most'
p1136
I1137
sS'fight.'
p1137
I1138
sS'services'
p1138
I1139
sS'The'
p1139
I1140
sS'appear'
p1140
I1141
sS'LARTIUS'
p1141
I1142
sS'charitable'
p1142
I1143
sS'dissolved'
p1143
I1144
sS'pikes,'
p1144
I1724
sS'barren'
p1145
I1146
sS'If'
p1146
I804
sS'nobility'
p1147
I1148
sS'Volsce,'
p1148
I1149
sS'fins'
p1149
I1150
sS"Tullus'"
p1150
I1151
sS'Had'
p1151
I1152
sS'feel,'
p1152
I1153
sS"task'd"
p1153
I1154
sS'fine'
p1154
I1155
sS'find'
p1155
I1156
sS'gilded'
p1156
I1157
sS"sigh'd"
p1157
I1158
sS'enemy,'
p1158
I1728
sS'justice'
p1159
I1160
sS'sacrifice.'
p1160
I1161
sS'beat'
p1161
I1801
sS'pretty'
p1162
I1162
sS'commission;'
p1163
I1163
sS'his'
p1164
I1164
sS'heaven,'
p1165
I1165
sS'express'
p1166
I1166
sS'hie'
p1167
I1167
sS'Volsces'
p1168
I1168
sS'him'
p1169
I1169
sS'body,'
p1170
I1170
sS'enemy'
p1171
I1171
sS'cry'
p1172
I1172
sS'remove'
p1173
I1173
sS'graced,'
p1174
I1174
sS'Held'
p1175
I1175
sS'common'
p1176
I1176
sS'That,'
p1177
I1177
sS'troth,'
p1178
I1178
sS'set'
p1179
I1179
sS'art'
p1180
I1180
sS'repetition.'
p1181
I815
sS'city,'
p1182
I1182
sS'city;'
p1183
I1183
sS'lion'
p1184
I1184
sS'are'
p1185
I1185
sS'arm'
p1186
I1186
sS'knees'
p1187
I1187
sS'please'
p1188
I1189
sS'See'
p1189
I1190
sS'won'
p1190
I1191
sS'Ye?'
p1191
I1192
sS'hangmen'
p1192
I1193
sS'Against'
p1193
I1194
sS"Rebell'd"
p1194
I1195
sS'Wednesday'
p1195
I1458
sS'both'
p1196
I1197
sS"answer'd"
p1197
I1198
sS'last'
p1198
I1199
sS'thou'
p1199
I1200
sS'sons,'
p1200
I1201
sS'Hecuba,'
p1201
I1202
sS'spirit,'
p1202
I1203
sS'whole'
p1203
I1204
sS'finds'
p1204
I1226
sS'Junius'
p1205
I1206
sS'price.'
p1206
I1207
sS'point'
p1207
I1208
sS'sweet'
p1208
I1209
sS'arguing.'
p1209
I1210
sS'Virgilia,'
p1210
I1211
sS'hews'
p1211
I1212
sS'wisdoms,'
p1212
I1213
sS'helms'
p1213
I1214
sS'stamp'
p1214
I1215
sS'grain;'
p1215
I1216
sS'whom'
p1216
I1217
sS'thither.'
p1217
I1218
sS'labour'
p1218
I1125
sS'Care'
p1219
I1219
sS'partly'
p1220
I1220
sS'success,'
p1221
I1221
sS'fire'
p1222
I1222
sS'infect'
p1223
I1223
sS"what's"
p1224
I1224
sS'mine'
p1225
I1188
sS'towns'
p1226
I1227
sS'Cominius'
p1227
I1228
sS'utmost'
p1228
I1229
sS'look'
p1229
I1230
sS'well,'
p1230
I1231
sS'mouths,'
p1231
I23
sS'crutch'
p1232
I1233
sS'who,'
p1233
I1234
sS'while'
p1234
I1235
sS'Yonder'
p1235
I1236
sS'further,'
p1236
I1237
sS'pack'
p1237
I1238
sS'where,'
p1238
I1239
sS'pound'
p1239
I1240
sS"Ulysses'"
p1240
I1241
sS"is't"
p1241
I935
sS'husband,'
p1242
I1243
sS'confound'
p1243
I1244
sS'Shouting'
p1244
I1245
sS'hire.'
p1245
I1246
sS'ready'
p1246
I1247
sS'AUFIDIUS'
p1247
I1248
sS'shunning'
p1248
I1249
sS'away.'
p1249
I1250
sS'Menenius'
p1250
I1251
sS'afoot.'
p1251
I1252
sS'seek'
p1252
I1253
sS'So,'
p1253
I114
sS'away!'
p1254
I1255
sS'wherein'
p1255
I1256
sS'prayers;'
p1256
I1257
sS'Sicinius'
p1257
I1258
sS'MENENIUS'
p1258
I1259
sS'itch'
p1259
I1260
sS'Then'
p1260
I203
sS'censure'
p1261
I1262
sS"army's"
p1262
I1263
sS'Worshipful'
p1263
I1264
sS'people.'
p1264
I1265
sS'yet.'
p1265
I1266
sS'yet,'
p1266
I1267
sS'awhile,'
p1267
I1268
sS'Marcius,'
p1268
I1269
sS'Marcius.'
p1269
I1270
sS'O,'
p1270
I1271
sS"O'"
p1271
I1272
sS"Marcius'"
p1272
I1273
sS'Marcius!'
p1273
I1274
sS'matter,'
p1274
I1275
sS'Marcius?'
p1275
I1276
sS'Marcius;'
p1276
I1277
sS'vigilant'
p1277
I1278
sS'complain,'
p1278
I1279
sS'matter?'
p1279
I1280
sS'unto'
p1280
I1281
sS'hated'
p1281
I1282
sS'Misguide'
p1282
I29
sS'follow.'
p1283
I1284
sS'thee,'
p1284
I1285
sS'march'
p1285
I1286
sS'What!'
p1286
I1287
sS'Thou'
p1287
I1288
sS'Of'
p1288
I1289
sS'bid'
p1289
I1290
sS'Mars,'
p1290
I1291
sS'suffering'
p1291
I1292
sS'thee;'
p1292
I1293
sS'Or'
p1293
I1294
sS'hate,'
p1294
I1295
sS'manifest'
p1295
I1296
sS'shapes'
p1296
I1297
sS'particularise'
p1297
I1298
sS"kings'"
p1298
I1299
sS'hate;'
p1299
I1300
sS'foolish'
p1300
I1301
sS'small--of'
p1301
I1302
sS"stand'st"
p1302
I1303
sS'Hark!'
p1303
I1304
sS'some'
p1304
I404
sS'back'
p1305
I1306
sS'virtue.'
p1306
I1307
sS'strongest'
p1307
I1308
sS'Messenger'
p1308
I1309
sS'pale'
p1309
I1310
sS'Look,'
p1310
I1311
sS'though'
p1311
I1312
sS'feebling'
p1312
I1313
sS'accusers,'
p1313
I1314
sS'good.'
p1314
I1315
sS'And,'
p1315
I1316
sS'run'
p1316
I1317
sS'this,'
p1317
I1809
sS"They've"
p1318
I1318
sS'O'
p1319
I1319
sS'become'
p1320
I1753
sS'womb,'
p1321
I169
sS'belly?'
p1322
I1676
sS'by'
p1323
I1322
sS'discontented'
p1324
I1323
sS'deserves'
p1325
I1324
sS'fragments!'
p1326
I1325
sS'gilt'
p1327
I1326
sS"'Come"
p1328
I1327
sS'seeing'
p1329
I1328
sS'picture-like'
p1330
I1329
sS'rushes.'
p1331
I1330
sS'boy.'
p1332
I1331
sS'Their'
p1333
I1332
sS'rushes;'
p1334
I1333
sS'mantled'
p1335
I1334
sS'eleven'
p1336
I1452
sS'long'
p1337
I1336
sS"Where's"
p1338
I1337
sS'rogues,'
p1339
I1338
sS'Come'
p1340
I1339
sS'himself'
p1341
I1340
sS'assembly?'
p1342
I1342
sS'link'
p1343
I1343
sS'maliciously.'
p1344
I1344
sS"I'll"
p1345
I1345
sS"I'ld"
p1346
I1346
sS'moths.'
p1347
I1354
sS'us'
p1348
I1348
sS'slander'
p1349
I1349
sS'thus--'
p1350
I1350
sS'Lartius,'
p1351
I1351
sS'door.'
p1352
I1352
sS'geese'
p1353
I1353
sS'To'
p1354
I1355
sS'Lartius?'
p1355
I1356
sS'Above'
p1356
I1357
sS'Grecian'
p1357
I1358
sS'gusts'
p1358
I1359
sS'smile,'
p1359
I1360
sS'themselves;'
p1360
I1361
sS"not--'Sdeath!"
p1361
I1362
sS'unreasonably'
p1362
I1363
sS'May'
p1363
I1364
sS'hark,'
p1364
I1365
sS'peace'
p1365
I1366
sS'fears'
p1366
I1367
sS'backs'
p1367
I1368
sS'wrath.'
p1368
I1369
sS'hell!'
p1369
I1370
sS'themselves.'
p1370
I1371
sS'statutes'
p1371
I1456
sS'confine'
p1372
I1373
sS'lend'
p1373
I1374
sS'neck.'
p1374
I1375
sS'breasts'
p1375
I1376
sS'prepared'
p1376
I1377
sS'silver.'
p1377
I1378
sS'sudden,'
p1378
I1379
sS'lead'
p1379
I1765
sS'vice'
p1380
I1381
sS'excuse,'
p1381
I483
sS'As'
p1382
I1383
sS'fear,'
p1383
I1384
sS'evil.'
p1384
I912
sS'far'
p1385
I1386
sS'Heavens'
p1386
I1387
sS'feverous'
p1387
I1388
sS'fear!'
p1388
I1389
sS'once'
p1389
I1390
sS'True,'
p1390
I1391
sS'pretences'
p1391
I1392
sS'agued'
p1392
I1393
sS'Capitol!'
p1393
I1394
sS'renown'
p1394
I1395
sS'Capitol;'
p1395
I1396
sS'go'
p1396
I1397
sS'send'
p1397
I1398
sS'helps'
p1398
I1399
sS'Not'
p1399
I1400
sS'Now'
p1400
I1401
sS'Nor'
p1401
I1007
sS'issue.'
p1402
I1403
sS'Titus'
p1403
I1404
sS'Yet'
p1404
I1720
sS'more,'
p1405
I1405
sS'yourselves'
p1406
I1406
sS'more.'
p1407
I1407
sS'No,'
p1408
I1408
sS'busied'
p1409
I1409
sS'stiff'
p1410
I1411
sS'help.'
p1411
I1412
sS'insolence'
p1412
I1413
sS'husewife'
p1413
I1088
sS'safe!'
p1414
I1415
sS'rivers'
p1415
I1416
sS'decrees'
p1416
I1417
sS'other;'
p1417
I1127
sS'that,'
p1418
I1419
sS'nothing'
p1419
I1420
sS'power'
p1420
I1421
sS'pitying,'
p1421
I1422
sS'rates;'
p1422
I1382
sS'Fortune,'
p1423
I1423
sS"man's"
p1424
I1424
sS'Agrippa;'
p1425
I1425
sS'that;'
p1426
I1426
sS'honours.'
p1427
I1427
sS'exercise'
p1428
I54
sS'body'
p1429
I1429
sS'desires'
p1430
I1430
sS'Tickled'
p1431
I1431
sS'let'
p1432
I1432
sS'sink'
p1433
I1433
sS'Our'
p1434
I1434
sS'great'
p1435
I1435
sS'receive'
p1436
I1436
sS'Or,'
p1437
I1437
sS'opinion'
p1438
I1438
sS'house-keepers.'
p1439
I1439
sS'makes'
p1440
I1440
sS'Prosperity'
p1441
I1441
sS'danger'
p1442
I1442
sS'win'
p1443
I1443
sS'counsels'
p1444
I1444
sS'persuaded;'
p1445
I1445
sS'apply'
p1446
I1446
sS'use'
p1447
I1447
sS'from'
p1448
I1448
sS'Attend'
p1449
I1449
sS'prithee,'
p1450
I1450
sS'Alack,'
p1451
I1451
sS'Methinks'
p1452
I1335
sS'doubt'
p1453
I1453
sS'sort'
p1454
I1454
sS"appear'd"
p1455
I1455
sS'becomes'
p1456
I1372
sS'sir.'
p1457
I1457
sS'Piercing'
p1458
I1196
sS'sir,'
p1459
I1459
sS'bodily'
p1460
I1460
sS'commonalty.'
p1461
I1461
sS'store-houses'
p1462
I1462
sS'sir;'
p1463
I1463
sS'demerits'
p1464
I1464
sS'red,'
p1465
I1465
sS'account'
p1466
I1466
sS'us!'
p1467
I1467
sS'this'
p1468
I1468
sS'us.'
p1469
I1469
sS'us,'
p1470
I1470
sS'Aufidius;'
p1471
I1471
sS'ice,'
p1472
I1472
sS'Aufidius!'
p1473
I1473
sS'praise'
p1474
I1474
sS'of'
p1475
I1475
sS'Aufidius,'
p1476
I1476
sS'us;'
p1477
I1477
sS'fetch'
p1478
I1478
sS'proof'
p1479
I1479
sS'hitherward.'
p1480
I1480
sS'bent'
p1481
I1481
sS'shepherd'
p1482
I1482
sS'high'
p1483
I1483
sS'half.'
p1484
I1484
sS'slip'
p1485
I1485
sS"warm'd"
p1486
I1486
sS'trumpet'
p1487
I1487
sS'doubtless.'
p1488
I1488
sS'sir'
p1489
I1489
sS'sit'
p1490
I1490
sS'Ye'
p1491
I1491
sS"friends,'--this"
p1492
I1492
sS'sin'
p1493
I1493
sS'fare'
p1494
I1494
sS'attend'
p1495
I1495
sS'carbuncle'
p1496
I1496
sS'Roman'
p1497
I1497
sS'folly.'
p1498
I1499
sS'gone,'
p1499
I1500
sS'light'
p1500
I1501
sS'One'
p1501
I1502
sS'chief'
p1502
I1503
sS'both?'
p1503
I1504
sS'pray,'
p1504
I1505
sS'looks'
p1505
I1506
sS'shreds'
p1506
I1507
sS'hand?'
p1507
I1508
sS'chosen'
p1508
I1509
sS"Who's"
p1509
I1510
sS'brook'
p1510
I1511
sS'Thanks.'
p1511
I1512
sS'restrain'
p1512
I1513
sS'Ay,'
p1513
I1515
sS'greater'
p1514
I1516
sS'flour'
p1515
I1517
sS'sirs,'
p1516
I1518
sS'affections'
p1517
I1519
sS'day'
p1518
I1520
sS'Agreed.'
p1519
I1521
sS'treads'
p1520
I1789
sS'prevailing'
p1521
I1522
sS'suitors'
p1522
I1523
sS'Titus,'
p1523
I1524
sS'Which'
p1524
I1525
sS'receipt;'
p1525
I1526
sS'our'
p1526
I1527
sS'out'
p1527
I1528
sS'lungs,'
p1528
I1529
sS"'"
p1529
I1530
sS'lance.'
p1530
I1531
sS'Very'
p1531
I1532
sS'defend'
p1532
I1533
sS"veil'd"
p1533
I1534
sS"rumour'd,"
p1534
I1535
sS'wondrous'
p1535
I14
sS"one's"
p1536
I1537
sS'shut'
p1537
I1538
sS'people,--'
p1538
I1539
sS'This'
p1539
I1540
sS'undo'
p1540
I1541
sS'Senator'
p1541
I1542
sS'met.'
p1542
I1543
sS'them,'
p1543
I1544
sS'could'
p1544
I1545
sS'purpose,'
p1545
I1546
sS'yarn'
p1546
I1547
sS'walls,'
p1547
I86
sS'walls?'
p1548
I1549
sS'south'
p1549
I1550
sS"swear,'tis"
p1550
I1551
sS'makes!'
p1551
I1552
sS'list,'
p1552
I1553
sS'such'
p1553
I1554
sS'city.'
p1554
I1555
sS'have,'
p1555
I1556
sS'Fare'
p1556
I1557
sS'has'
p1557
I341
sS'For'
p1558
I1558
sS'unknown'
p1559
I1559
sS'love.'
p1560
I798
sS'Sir,'
p1561
I172
sS'percussion'
p1562
I176
sS'enough!'
p1563
I1564
sS'quarry'
p1564
I1565
sS'takes,'
p1565
I1566
sS'child.'
p1566
I1567
sS'speak,'
p1567
I1568
sS'Brutus,'
p1568
I1569
sS'loved'
p1569
I1570
sS'proud.'
p1570
I1571
sS'chase,'
p1571
I237
sS'ladyship.'
p1572
I1573
sS'upon;'
p1573
I1574
sS'steed'
p1574
I1575
sS'see'
p1575
I1576
sS'bed'
p1576
I1577
sS'ladyship;'
p1577
I1578
sS'me,--'
p1578
I1579
sS'calamity'
p1579
I1580
sS'pot,'
p1580
I1581
sS"body's"
p1581
I1582
sS'proud;'
p1582
I271
sS'countrymen,'
p1583
I1584
sS'clip'
p1584
I1585
sS'comfortable'
p1585
I1586
sS'gods!'
p1586
I1587
sS'have'
p1587
I1588
sS'need'
p1588
I1589
sS'comes,'
p1589
I1590
sS'competency'
p1590
I1591
sS"'larum,"
p1591
I1592
sS'which'
p1592
I1593
sS'patience;'
p1593
I1594
sS'gods.'
p1594
I1595
sS'who'
p1595
I372
sS'business.'
p1596
I1597
sS'business,'
p1597
I1598
sS'gods,'
p1598
I1599
sS'cracking'
p1599
I1600
sS'why'
p1600
I1601
sS"husband's"
p1601
I1602
sS'awe,'
p1602
I1603
sS'battle;'
p1603
I1604
sS'sing;'
p1604
I1605
sS'Some'
p1605
I1606
sS'disease'
p1606
I1607
sS'looked'
p1607
I1608
sS"you'll"
p1608
I1609
sS'lions,'
p1609
I1610
sS'patricians'
p1610
I1611
sS'couldst'
p1611
I452
sS'word.'
p1612
I1613
sS"business!'"
p1613
I1614
sS'bring'
p1614
I1086
sS'Under'
p1615
I1616
sS'fear'
p1616
I1617
sS'pleased'
p1617
I1618
sS'one'
p1618
I133
sS'murrain'
p1619
I491
sS"'twas,"
p1620
I502
sS'earned'
p1621
I1621
sS'rash'
p1622
I1622
sS'should'
p1623
I1623
sS'true;'
p1624
I1624
sS'rejoice'
p1625
I1792
sS'thousands'
p1626
I1626
sS'inferior'
p1627
I1627
sS'spun'
p1628
I1628
sS'years.'
p1629
I1629
sS'soldier,'
p1630
I543
sS'means'
p1631
I1631
sS'Whether'
p1632
I1632
sS'bear'
p1633
I1633
sS'Deserves'
p1634
I1634
sS'speak--it'
p1635
I1635
sS'mutiners,'
p1636
I561
sS'thrives'
p1637
I1637
sS'Because'
p1638
I1638
sS'whether'
p1639
I1807
sS'she'
p1640
I1640
sS'wish'
p1641
I1808
sS"woo'd,"
p1642
I1642
sS"Lead'st"
p1643
I1643
sS'horns'
p1644
I1644
sS'inkling'
p1645
I1645
sS'accused'
p1646
I1646
sS'once,'
p1647
I1647
sS'viand,'
p1648
I1648
sS'below'
p1649
I1812
sS'Pluto'
p1650
I1650
sS'mind,'
p1651
I1651
sS'neither'
p1652
I1652
sS'mutinous;'
p1653
I1653
sS'powers,'
p1654
I1654
sS'joy'
p1655
I1655
sS'deliver'
p1656
I1656
sS'merry'
p1657
I1657
sS'madst'
p1658
I1658
sS'asunder'
p1659
I1659
sS'devour'
p1660
I1660
sS'grain'
p1661
I1661
sS'passing'
p1662
I1662
sS'resolved.'
p1663
I1663
sS'vent'
p1664
I808
sS'Would'
p1665
I1665
sS'thunder-like'
p1666
I1666
sS'kingly-crowned'
p1667
I1667
sS'singularity,'
p1668
I1668
sS'Fie,'
p1669
I1669
sS'together.'
p1670
I1670
sS'done,'
p1671
I1671
sS'done.'
p1672
I1672
sS"Mark'd"
p1673
I1673
sS'tread'
p1674
I1674
sS'own,'
p1675
I1675
sS"it's"
p1676
I788
sS'own.'
p1677
I1677
sS'pity.'
p1678
I1678
sS'armies?'
p1679
I1679
sS'gaze'
p1680
I1680
sS'attends'
p1681
I1681
sS'yonder,'
p1682
I883
sS"answer'd,"
p1683
I1684
sS'home,'
p1684
I1685
sS'rich,'
p1685
I1686
sS'nuptial'
p1686
I1687
sS'Hark'
p1687
I1410
sS'general'
p1688
I895
sS'garners.'
p1689
I934
sS"That's"
p1690
I1691
sS'And'
p1691
I1692
sS'will;'
p1692
I1693
sS'examine'
p1693
I1560
sS'will'
p1694
I1695
sS'movers'
p1695
I1696
sS"'True"
p1696
I1697
sS'will.'
p1697
I1698
sS'at'
p1698
I898
sS'suckle'
p1699
I1699
sS'almost'
p1700
I1700
sS'thus'
p1701
I1701
sS'You'
p1702
I1702
sS'behind;'
p1703
I1703
sS'valour'
p1704
I1704
sS'parts'
p1705
I1047
sS'party'
p1706
I1706
sS'these?'
p1707
I1707
sS'slave'
p1708
I1708
sS'Third'
p1709
I1709
sS'fielded'
p1710
I1710
sS'shames'
p1711
I1711
sS'usurers;'
p1712
I1712
sS'upon'
p1713
I1713
sS'VOLUMNIA'
p1714
I1714
sS"quarter'd"
p1715
I1715
sS'fierce'
p1716
I1716
sS'audit'
p1717
I1717
sS'off'
p1718
I1718
sS'well'
p1719
I1719
sS"'s,"
p1720
I1205
sS'thought'
p1721
I1721
sS'doors.'
p1722
I1722
sS'Have'
p1723
I1132
sS'doors!'
p1724
I1145
sS'devise,'
p1725
I1725
sS'returned,'
p1726
I1726
sS'Flower'
p1727
I1727
sS'Then,'
p1728
I1159
sS'less'
p1729
I1729
sS'Convenient'
p1730
I1730
sS'enemy?'
p1731
I1731
sS'Spies'
p1732
I1732
sS'town,'
p1733
I1733
sS"crack'd"
p1734
I1734
sS'work,'
p1735
I1735
sS'shoes.'
p1736
I1736
sS'town.'
p1737
I1737
sS'other'
p1738
I1827
sS'proverbs,'
p1739
I1739
sS'as'
p1740
I1694
sS'warrant'
p1741
I1740
sS'By'
p1742
I1741
sS'resolved'
p1743
I1742
sS"who's"
p1744
I1743
sS'Below'
p1745
I1744
sS'know'
p1746
I1745
sS'presume'
p1747
I1746
sS'like'
p1748
I1747
sS'Within'
p1749
I1748
sS"pinn'd"
p1750
I1749
sS'we,'
p1751
I1750
sS'Penelope'
p1752
I1751
sS'lose'
p1753
I1752
sS'nerves'
p1754
I1320
sS'tauntingly'
p1755
I1754
sS'therein'
p1756
I1755
sS'proceed.'
p1757
I1831
sS'authority'
p1758
I1757
sS'neighbours,'
p1759
I1758
sS'alike.'
p1760
I1759
sS"friends,'"
p1761
I1760
sS'liking'
p1762
I1761
sS'Whereby'
p1763
I1834
sS'leaden'
p1764
I1763
sS'madam.'
p1765
I1764
sS'madam,'
p1766
I1380
sS'Was'
p1767
I1766
sS'lean'
p1768
I1767
sS'madam;'
p1769
I1768
sS'does'
p1770
I1769
sS'madam?'
p1771
I1770
sS'noise'
p1772
I1771
sS'obey'
p1773
I1772
sS'how'
p1774
I1773
sS'petty'
p1775
I1774
sS'worthy'
p1776
I1775
sS'about'
p1777
I1776
sS'again;'
p1778
I1838
sS'in.'
p1779
I1778
sS'mine.'
p1780
I1779
sS'leash,'
p1781
I1780
sS'farewell.'
p1782
I1781
sS'sweat'
p1783
I1782
sS'tongue'
p1784
I1783
sS'own'
p1785
I1784
sS'deliver.'
p1786
I1785
sS'court,'
p1787
I1786
sS'miscarries'
p1788
I1787
sS'guard'
p1789
I1788
sS'Amongst'
p1790
I655
sS'From'
p1791
I1790
sS'fawning'
p1792
I1791
sS'First,'
p1793
I1514
sS'Upon'
p1794
I1793
sS'trenches'
p1795
I1794
sS"We'll"
p1796
I1795
sS'buy'
p1797
I1796
sS'blast.'
p1798
I1797
sS'but'
p1799
I1798
sS'tapers'
p1800
I1799
sS'gain'
p1801
I1800
sS'Following'
p1802
I1615
sS'eat'
p1803
I1802
sS'he'
p1804
I1625
sS'made'
p1805
I1804
sS'wise'
p1806
I1805
sS'places'
p1807
I1806
sS'eyes?'
p1808
I1639
sS'dangerous'
p1809
I1641
sS'gird'
p1810
I592
sS'this.'
p1811
I1810
sS'spot,'
p1812
I1811
sS'cruel'
p1813
I1649
sS'this?'
p1814
I1813
sS'bearing'
p1815
I1814
sS'tribunes'
p1816
I1815
sS'rightly'
p1817
I1816
sS'spoons,'
p1818
I1682
sS'dearth'
p1819
I1818
sS'arms.'
p1820
I1819
sS'arms,'
p1821
I1820
sS'friend;'
p1822
I1821
sS'flight'
p1823
I1822
sS'proceeds'
p1824
I1823
sS'Shall'
p1825
I1824
sS'lately'
p1826
I1825
sS'like.'
p1827
I1826
sS'since?'
p1828
I1738
sS'Five'
p1829
I1828
sS'sick'
p1830
I1829
sS'Shalt'
p1831
I1830
sS'beat!'
p1832
I1756
sS'yours,'
p1833
I1832
sS'again.'
p1834
I1833
sS'Like'
p1835
I1762
sS'indeed,'
p1836
I1835
sS'indeed!'
p1837
I1836
sS'stay'
p1838
I1837
sS'yours?'
p1839
I1777
sS'instruction.'
p1840
I1112
sS'death,'
p1841
I1840
sS'else'
p1842
I1225
sS'friends'
p1843
I1842
sS'slaves,'
p1844
I1848
sS'Thus'
p1845
I1817
sS'news?'
p1846
I1845
sS'shall.'
p1847
I1846
sS'Well,'
p1848
I15
sS'tabour'
p1849
I1843
sS'news.'
p1850
I1849
s.